Archive member included to satisfy reference by file (symbol)

C:/Users/Admin/.mcuxpressotools/arm-gnu-toolchain-14.2.rel1-mingw-w64-x86_64-arm-none-eabi/bin/../lib/gcc/arm-none-eabi/14.2.1/thumb/v8-m.main+fp/hard\libgcc.a(_aeabi_uldivmod.o)
                              CMakeFiles/freertos_hello.elf.dir/D_/PROJECT/XpressoSDK/SDK_2_14_0_MIMX9352xxxxK/devices/MIMX9352/drivers/fsl_common_arm.c.obj (__aeabi_uldivmod)
C:/Users/Admin/.mcuxpressotools/arm-gnu-toolchain-14.2.rel1-mingw-w64-x86_64-arm-none-eabi/bin/../lib/gcc/arm-none-eabi/14.2.1/thumb/v8-m.main+fp/hard\libgcc.a(_udivmoddi4.o)
                              C:/Users/Admin/.mcuxpressotools/arm-gnu-toolchain-14.2.rel1-mingw-w64-x86_64-arm-none-eabi/bin/../lib/gcc/arm-none-eabi/14.2.1/thumb/v8-m.main+fp/hard\libgcc.a(_aeabi_uldivmod.o) (__udivmoddi4)
C:/Users/Admin/.mcuxpressotools/arm-gnu-toolchain-14.2.rel1-mingw-w64-x86_64-arm-none-eabi/bin/../lib/gcc/arm-none-eabi/14.2.1/thumb/v8-m.main+fp/hard\libgcc.a(_dvmd_tls.o)
                              C:/Users/Admin/.mcuxpressotools/arm-gnu-toolchain-14.2.rel1-mingw-w64-x86_64-arm-none-eabi/bin/../lib/gcc/arm-none-eabi/14.2.1/thumb/v8-m.main+fp/hard\libgcc.a(_aeabi_uldivmod.o) (__aeabi_ldiv0)
C:/Users/Admin/.mcuxpressotools/arm-gnu-toolchain-14.2.rel1-mingw-w64-x86_64-arm-none-eabi/bin/../lib/gcc/arm-none-eabi/14.2.1/thumb/v8-m.main+fp/hard\libc_nano.a(libc_a-exit.o)
                              C:/Users/Admin/.mcuxpressotools/arm-gnu-toolchain-14.2.rel1-mingw-w64-x86_64-arm-none-eabi/bin/../lib/gcc/arm-none-eabi/14.2.1/thumb/v8-m.main+fp/hard/crt0.o (exit)
C:/Users/Admin/.mcuxpressotools/arm-gnu-toolchain-14.2.rel1-mingw-w64-x86_64-arm-none-eabi/bin/../lib/gcc/arm-none-eabi/14.2.1/thumb/v8-m.main+fp/hard\libc_nano.a(libc_a-malloc.o)
                              CMakeFiles/freertos_hello.elf.dir/D_/PROJECT/XpressoSDK/SDK_2_14_0_MIMX9352xxxxK/devices/MIMX9352/drivers/fsl_common.c.obj (malloc)
C:/Users/Admin/.mcuxpressotools/arm-gnu-toolchain-14.2.rel1-mingw-w64-x86_64-arm-none-eabi/bin/../lib/gcc/arm-none-eabi/14.2.1/thumb/v8-m.main+fp/hard\libc_nano.a(libc_a-mallocr.o)
                              C:/Users/Admin/.mcuxpressotools/arm-gnu-toolchain-14.2.rel1-mingw-w64-x86_64-arm-none-eabi/bin/../lib/gcc/arm-none-eabi/14.2.1/thumb/v8-m.main+fp/hard\libc_nano.a(libc_a-malloc.o) (_malloc_r)
C:/Users/Admin/.mcuxpressotools/arm-gnu-toolchain-14.2.rel1-mingw-w64-x86_64-arm-none-eabi/bin/../lib/gcc/arm-none-eabi/14.2.1/thumb/v8-m.main+fp/hard\libc_nano.a(libc_a-mlock.o)
                              C:/Users/Admin/.mcuxpressotools/arm-gnu-toolchain-14.2.rel1-mingw-w64-x86_64-arm-none-eabi/bin/../lib/gcc/arm-none-eabi/14.2.1/thumb/v8-m.main+fp/hard\libc_nano.a(libc_a-mallocr.o) (__malloc_lock)
C:/Users/Admin/.mcuxpressotools/arm-gnu-toolchain-14.2.rel1-mingw-w64-x86_64-arm-none-eabi/bin/../lib/gcc/arm-none-eabi/14.2.1/thumb/v8-m.main+fp/hard\libc_nano.a(libc_a-strtoul.o)
                              CMakeFiles/freertos_hello.elf.dir/D_/PROJECT/XpressoSDK/SDK_2_14_0_MIMX9352xxxxK/devices/MIMX9352/utilities/str/fsl_str.c.obj (strtoul)
C:/Users/Admin/.mcuxpressotools/arm-gnu-toolchain-14.2.rel1-mingw-w64-x86_64-arm-none-eabi/bin/../lib/gcc/arm-none-eabi/14.2.1/thumb/v8-m.main+fp/hard\libc_nano.a(libc_a-ctype_.o)
                              C:/Users/Admin/.mcuxpressotools/arm-gnu-toolchain-14.2.rel1-mingw-w64-x86_64-arm-none-eabi/bin/../lib/gcc/arm-none-eabi/14.2.1/thumb/v8-m.main+fp/hard\libc_nano.a(libc_a-strtoul.o) (_ctype_)
C:/Users/Admin/.mcuxpressotools/arm-gnu-toolchain-14.2.rel1-mingw-w64-x86_64-arm-none-eabi/bin/../lib/gcc/arm-none-eabi/14.2.1/thumb/v8-m.main+fp/hard\libc_nano.a(libc_a-findfp.o)
                              C:/Users/Admin/.mcuxpressotools/arm-gnu-toolchain-14.2.rel1-mingw-w64-x86_64-arm-none-eabi/bin/../lib/gcc/arm-none-eabi/14.2.1/thumb/v8-m.main+fp/hard\libc_nano.a(libc_a-exit.o) (__stdio_exit_handler)
C:/Users/Admin/.mcuxpressotools/arm-gnu-toolchain-14.2.rel1-mingw-w64-x86_64-arm-none-eabi/bin/../lib/gcc/arm-none-eabi/14.2.1/thumb/v8-m.main+fp/hard\libc_nano.a(libc_a-fwalk.o)
                              C:/Users/Admin/.mcuxpressotools/arm-gnu-toolchain-14.2.rel1-mingw-w64-x86_64-arm-none-eabi/bin/../lib/gcc/arm-none-eabi/14.2.1/thumb/v8-m.main+fp/hard\libc_nano.a(libc_a-findfp.o) (_fwalk_sglue)
C:/Users/Admin/.mcuxpressotools/arm-gnu-toolchain-14.2.rel1-mingw-w64-x86_64-arm-none-eabi/bin/../lib/gcc/arm-none-eabi/14.2.1/thumb/v8-m.main+fp/hard\libc_nano.a(libc_a-stdio.o)
                              C:/Users/Admin/.mcuxpressotools/arm-gnu-toolchain-14.2.rel1-mingw-w64-x86_64-arm-none-eabi/bin/../lib/gcc/arm-none-eabi/14.2.1/thumb/v8-m.main+fp/hard\libc_nano.a(libc_a-findfp.o) (__sread)
C:/Users/Admin/.mcuxpressotools/arm-gnu-toolchain-14.2.rel1-mingw-w64-x86_64-arm-none-eabi/bin/../lib/gcc/arm-none-eabi/14.2.1/thumb/v8-m.main+fp/hard\libc_nano.a(libc_a-memset.o)
                              C:/Users/Admin/.mcuxpressotools/arm-gnu-toolchain-14.2.rel1-mingw-w64-x86_64-arm-none-eabi/bin/../lib/gcc/arm-none-eabi/14.2.1/thumb/v8-m.main+fp/hard/crt0.o (memset)
C:/Users/Admin/.mcuxpressotools/arm-gnu-toolchain-14.2.rel1-mingw-w64-x86_64-arm-none-eabi/bin/../lib/gcc/arm-none-eabi/14.2.1/thumb/v8-m.main+fp/hard\libc_nano.a(libc_a-closer.o)
                              C:/Users/Admin/.mcuxpressotools/arm-gnu-toolchain-14.2.rel1-mingw-w64-x86_64-arm-none-eabi/bin/../lib/gcc/arm-none-eabi/14.2.1/thumb/v8-m.main+fp/hard\libc_nano.a(libc_a-stdio.o) (_close_r)
C:/Users/Admin/.mcuxpressotools/arm-gnu-toolchain-14.2.rel1-mingw-w64-x86_64-arm-none-eabi/bin/../lib/gcc/arm-none-eabi/14.2.1/thumb/v8-m.main+fp/hard\libc_nano.a(libc_a-reent.o)
                              C:/Users/Admin/.mcuxpressotools/arm-gnu-toolchain-14.2.rel1-mingw-w64-x86_64-arm-none-eabi/bin/../lib/gcc/arm-none-eabi/14.2.1/thumb/v8-m.main+fp/hard\libc_nano.a(libc_a-closer.o) (errno)
C:/Users/Admin/.mcuxpressotools/arm-gnu-toolchain-14.2.rel1-mingw-w64-x86_64-arm-none-eabi/bin/../lib/gcc/arm-none-eabi/14.2.1/thumb/v8-m.main+fp/hard\libc_nano.a(libc_a-impure.o)
                              C:/Users/Admin/.mcuxpressotools/arm-gnu-toolchain-14.2.rel1-mingw-w64-x86_64-arm-none-eabi/bin/../lib/gcc/arm-none-eabi/14.2.1/thumb/v8-m.main+fp/hard\libc_nano.a(libc_a-malloc.o) (_impure_ptr)
C:/Users/Admin/.mcuxpressotools/arm-gnu-toolchain-14.2.rel1-mingw-w64-x86_64-arm-none-eabi/bin/../lib/gcc/arm-none-eabi/14.2.1/thumb/v8-m.main+fp/hard\libc_nano.a(libc_a-lseekr.o)
                              C:/Users/Admin/.mcuxpressotools/arm-gnu-toolchain-14.2.rel1-mingw-w64-x86_64-arm-none-eabi/bin/../lib/gcc/arm-none-eabi/14.2.1/thumb/v8-m.main+fp/hard\libc_nano.a(libc_a-stdio.o) (_lseek_r)
C:/Users/Admin/.mcuxpressotools/arm-gnu-toolchain-14.2.rel1-mingw-w64-x86_64-arm-none-eabi/bin/../lib/gcc/arm-none-eabi/14.2.1/thumb/v8-m.main+fp/hard\libc_nano.a(libc_a-readr.o)
                              C:/Users/Admin/.mcuxpressotools/arm-gnu-toolchain-14.2.rel1-mingw-w64-x86_64-arm-none-eabi/bin/../lib/gcc/arm-none-eabi/14.2.1/thumb/v8-m.main+fp/hard\libc_nano.a(libc_a-stdio.o) (_read_r)
C:/Users/Admin/.mcuxpressotools/arm-gnu-toolchain-14.2.rel1-mingw-w64-x86_64-arm-none-eabi/bin/../lib/gcc/arm-none-eabi/14.2.1/thumb/v8-m.main+fp/hard\libc_nano.a(libc_a-sbrkr.o)
                              C:/Users/Admin/.mcuxpressotools/arm-gnu-toolchain-14.2.rel1-mingw-w64-x86_64-arm-none-eabi/bin/../lib/gcc/arm-none-eabi/14.2.1/thumb/v8-m.main+fp/hard\libc_nano.a(libc_a-mallocr.o) (_sbrk_r)
C:/Users/Admin/.mcuxpressotools/arm-gnu-toolchain-14.2.rel1-mingw-w64-x86_64-arm-none-eabi/bin/../lib/gcc/arm-none-eabi/14.2.1/thumb/v8-m.main+fp/hard\libc_nano.a(libc_a-writer.o)
                              C:/Users/Admin/.mcuxpressotools/arm-gnu-toolchain-14.2.rel1-mingw-w64-x86_64-arm-none-eabi/bin/../lib/gcc/arm-none-eabi/14.2.1/thumb/v8-m.main+fp/hard\libc_nano.a(libc_a-stdio.o) (_write_r)
C:/Users/Admin/.mcuxpressotools/arm-gnu-toolchain-14.2.rel1-mingw-w64-x86_64-arm-none-eabi/bin/../lib/gcc/arm-none-eabi/14.2.1/thumb/v8-m.main+fp/hard\libc_nano.a(libc_a-errno.o)
                              CMakeFiles/freertos_hello.elf.dir/D_/PROJECT/XpressoSDK/SDK_2_14_0_MIMX9352xxxxK/devices/MIMX9352/utilities/fsl_sbrk.c.obj (__errno)
C:/Users/Admin/.mcuxpressotools/arm-gnu-toolchain-14.2.rel1-mingw-w64-x86_64-arm-none-eabi/bin/../lib/gcc/arm-none-eabi/14.2.1/thumb/v8-m.main+fp/hard\libc_nano.a(libc_a-init.o)
                              C:/Users/Admin/.mcuxpressotools/arm-gnu-toolchain-14.2.rel1-mingw-w64-x86_64-arm-none-eabi/bin/../lib/gcc/arm-none-eabi/14.2.1/thumb/v8-m.main+fp/hard/crt0.o (__libc_init_array)
C:/Users/Admin/.mcuxpressotools/arm-gnu-toolchain-14.2.rel1-mingw-w64-x86_64-arm-none-eabi/bin/../lib/gcc/arm-none-eabi/14.2.1/thumb/v8-m.main+fp/hard\libc_nano.a(libc_a-lock.o)
                              C:/Users/Admin/.mcuxpressotools/arm-gnu-toolchain-14.2.rel1-mingw-w64-x86_64-arm-none-eabi/bin/../lib/gcc/arm-none-eabi/14.2.1/thumb/v8-m.main+fp/hard\libc_nano.a(libc_a-findfp.o) (__retarget_lock_init_recursive)
C:/Users/Admin/.mcuxpressotools/arm-gnu-toolchain-14.2.rel1-mingw-w64-x86_64-arm-none-eabi/bin/../lib/gcc/arm-none-eabi/14.2.1/thumb/v8-m.main+fp/hard\libc_nano.a(libc_a-strlen.o)
                              CMakeFiles/freertos_hello.elf.dir/D_/PROJECT/XpressoSDK/SDK_2_14_0_MIMX9352xxxxK/devices/MIMX9352/utilities/str/fsl_str.c.obj (strlen)
C:/Users/Admin/.mcuxpressotools/arm-gnu-toolchain-14.2.rel1-mingw-w64-x86_64-arm-none-eabi/bin/../lib/gcc/arm-none-eabi/14.2.1/thumb/v8-m.main+fp/hard\libc_nano.a(libc_a-freer.o)
                              C:/Users/Admin/.mcuxpressotools/arm-gnu-toolchain-14.2.rel1-mingw-w64-x86_64-arm-none-eabi/bin/../lib/gcc/arm-none-eabi/14.2.1/thumb/v8-m.main+fp/hard\libc_nano.a(libc_a-malloc.o) (_free_r)
C:/Users/Admin/.mcuxpressotools/arm-gnu-toolchain-14.2.rel1-mingw-w64-x86_64-arm-none-eabi/bin/../lib/gcc/arm-none-eabi/14.2.1/thumb/v8-m.main+fp/hard\libc_nano.a(libc_a-fflush.o)
                              C:/Users/Admin/.mcuxpressotools/arm-gnu-toolchain-14.2.rel1-mingw-w64-x86_64-arm-none-eabi/bin/../lib/gcc/arm-none-eabi/14.2.1/thumb/v8-m.main+fp/hard\libc_nano.a(libc_a-findfp.o) (_fflush_r)
C:/Users/Admin/.mcuxpressotools/arm-gnu-toolchain-14.2.rel1-mingw-w64-x86_64-arm-none-eabi/bin/../lib/gcc/arm-none-eabi/14.2.1/../../../../arm-none-eabi/lib/thumb/v8-m.main+fp/hard\libcr_newlib_nohost.a(_exit.o)
                              C:/Users/Admin/.mcuxpressotools/arm-gnu-toolchain-14.2.rel1-mingw-w64-x86_64-arm-none-eabi/bin/../lib/gcc/arm-none-eabi/14.2.1/thumb/v8-m.main+fp/hard\libc_nano.a(libc_a-exit.o) (_exit)
C:/Users/Admin/.mcuxpressotools/arm-gnu-toolchain-14.2.rel1-mingw-w64-x86_64-arm-none-eabi/bin/../lib/gcc/arm-none-eabi/14.2.1/../../../../arm-none-eabi/lib/thumb/v8-m.main+fp/hard\libcr_newlib_nohost.a(close.o)
                              C:/Users/Admin/.mcuxpressotools/arm-gnu-toolchain-14.2.rel1-mingw-w64-x86_64-arm-none-eabi/bin/../lib/gcc/arm-none-eabi/14.2.1/thumb/v8-m.main+fp/hard\libc_nano.a(libc_a-closer.o) (_close)
C:/Users/Admin/.mcuxpressotools/arm-gnu-toolchain-14.2.rel1-mingw-w64-x86_64-arm-none-eabi/bin/../lib/gcc/arm-none-eabi/14.2.1/../../../../arm-none-eabi/lib/thumb/v8-m.main+fp/hard\libcr_newlib_nohost.a(lseek.o)
                              C:/Users/Admin/.mcuxpressotools/arm-gnu-toolchain-14.2.rel1-mingw-w64-x86_64-arm-none-eabi/bin/../lib/gcc/arm-none-eabi/14.2.1/thumb/v8-m.main+fp/hard\libc_nano.a(libc_a-lseekr.o) (_lseek)
C:/Users/Admin/.mcuxpressotools/arm-gnu-toolchain-14.2.rel1-mingw-w64-x86_64-arm-none-eabi/bin/../lib/gcc/arm-none-eabi/14.2.1/../../../../arm-none-eabi/lib/thumb/v8-m.main+fp/hard\libcr_newlib_nohost.a(read.o)
                              C:/Users/Admin/.mcuxpressotools/arm-gnu-toolchain-14.2.rel1-mingw-w64-x86_64-arm-none-eabi/bin/../lib/gcc/arm-none-eabi/14.2.1/thumb/v8-m.main+fp/hard\libc_nano.a(libc_a-readr.o) (_read)
C:/Users/Admin/.mcuxpressotools/arm-gnu-toolchain-14.2.rel1-mingw-w64-x86_64-arm-none-eabi/bin/../lib/gcc/arm-none-eabi/14.2.1/../../../../arm-none-eabi/lib/thumb/v8-m.main+fp/hard\libcr_newlib_nohost.a(write.o)
                              C:/Users/Admin/.mcuxpressotools/arm-gnu-toolchain-14.2.rel1-mingw-w64-x86_64-arm-none-eabi/bin/../lib/gcc/arm-none-eabi/14.2.1/thumb/v8-m.main+fp/hard\libc_nano.a(libc_a-writer.o) (_write)

Discarded input sections

 .text          0x00000000        0x0 C:/Users/Admin/.mcuxpressotools/arm-gnu-toolchain-14.2.rel1-mingw-w64-x86_64-arm-none-eabi/bin/../lib/gcc/arm-none-eabi/14.2.1/thumb/v8-m.main+fp/hard/crti.o
 .data          0x00000000        0x0 C:/Users/Admin/.mcuxpressotools/arm-gnu-toolchain-14.2.rel1-mingw-w64-x86_64-arm-none-eabi/bin/../lib/gcc/arm-none-eabi/14.2.1/thumb/v8-m.main+fp/hard/crti.o
 .bss           0x00000000        0x0 C:/Users/Admin/.mcuxpressotools/arm-gnu-toolchain-14.2.rel1-mingw-w64-x86_64-arm-none-eabi/bin/../lib/gcc/arm-none-eabi/14.2.1/thumb/v8-m.main+fp/hard/crti.o
 .text          0x00000000        0x0 C:/Users/Admin/.mcuxpressotools/arm-gnu-toolchain-14.2.rel1-mingw-w64-x86_64-arm-none-eabi/bin/../lib/gcc/arm-none-eabi/14.2.1/thumb/v8-m.main+fp/hard/crtbegin.o
 .data          0x00000000        0x0 C:/Users/Admin/.mcuxpressotools/arm-gnu-toolchain-14.2.rel1-mingw-w64-x86_64-arm-none-eabi/bin/../lib/gcc/arm-none-eabi/14.2.1/thumb/v8-m.main+fp/hard/crtbegin.o
 .bss           0x00000000        0x0 C:/Users/Admin/.mcuxpressotools/arm-gnu-toolchain-14.2.rel1-mingw-w64-x86_64-arm-none-eabi/bin/../lib/gcc/arm-none-eabi/14.2.1/thumb/v8-m.main+fp/hard/crtbegin.o
 .rodata.all_implied_fbits
                0x00000000       0x24 C:/Users/Admin/.mcuxpressotools/arm-gnu-toolchain-14.2.rel1-mingw-w64-x86_64-arm-none-eabi/bin/../lib/gcc/arm-none-eabi/14.2.1/thumb/v8-m.main+fp/hard/crtbegin.o
 .data.__dso_handle
                0x00000000        0x4 C:/Users/Admin/.mcuxpressotools/arm-gnu-toolchain-14.2.rel1-mingw-w64-x86_64-arm-none-eabi/bin/../lib/gcc/arm-none-eabi/14.2.1/thumb/v8-m.main+fp/hard/crtbegin.o
 .data          0x00000000        0x0 C:/Users/Admin/.mcuxpressotools/arm-gnu-toolchain-14.2.rel1-mingw-w64-x86_64-arm-none-eabi/bin/../lib/gcc/arm-none-eabi/14.2.1/thumb/v8-m.main+fp/hard/crt0.o
 .bss           0x00000000        0x0 C:/Users/Admin/.mcuxpressotools/arm-gnu-toolchain-14.2.rel1-mingw-w64-x86_64-arm-none-eabi/bin/../lib/gcc/arm-none-eabi/14.2.1/thumb/v8-m.main+fp/hard/crt0.o
 .ARM.extab     0x00000000        0x0 C:/Users/Admin/.mcuxpressotools/arm-gnu-toolchain-14.2.rel1-mingw-w64-x86_64-arm-none-eabi/bin/../lib/gcc/arm-none-eabi/14.2.1/thumb/v8-m.main+fp/hard/crt0.o
 .text          0x00000000        0x0 CMakeFiles/freertos_hello.elf.dir/D_/IMX93/PROJECT/mcimx93evk_freertos_hello/pin_mux.c.obj
 .data          0x00000000        0x0 CMakeFiles/freertos_hello.elf.dir/D_/IMX93/PROJECT/mcimx93evk_freertos_hello/pin_mux.c.obj
 .bss           0x00000000        0x0 CMakeFiles/freertos_hello.elf.dir/D_/IMX93/PROJECT/mcimx93evk_freertos_hello/pin_mux.c.obj
 .rodata.s_clockSourceName
                0x00000000      0x17c CMakeFiles/freertos_hello.elf.dir/D_/IMX93/PROJECT/mcimx93evk_freertos_hello/pin_mux.c.obj
 .text          0x00000000        0x0 CMakeFiles/freertos_hello.elf.dir/D_/IMX93/PROJECT/mcimx93evk_freertos_hello/freertos_hello.c.obj
 .data          0x00000000        0x0 CMakeFiles/freertos_hello.elf.dir/D_/IMX93/PROJECT/mcimx93evk_freertos_hello/freertos_hello.c.obj
 .bss           0x00000000        0x0 CMakeFiles/freertos_hello.elf.dir/D_/IMX93/PROJECT/mcimx93evk_freertos_hello/freertos_hello.c.obj
 .rodata.s_clockSourceName
                0x00000000      0x17c CMakeFiles/freertos_hello.elf.dir/D_/IMX93/PROJECT/mcimx93evk_freertos_hello/freertos_hello.c.obj
 .text          0x00000000        0x0 CMakeFiles/freertos_hello.elf.dir/D_/IMX93/PROJECT/mcimx93evk_freertos_hello/board.c.obj
 .data          0x00000000        0x0 CMakeFiles/freertos_hello.elf.dir/D_/IMX93/PROJECT/mcimx93evk_freertos_hello/board.c.obj
 .bss           0x00000000        0x0 CMakeFiles/freertos_hello.elf.dir/D_/IMX93/PROJECT/mcimx93evk_freertos_hello/board.c.obj
 .text.ARM_MPU_Enable
                0x00000000       0x44 CMakeFiles/freertos_hello.elf.dir/D_/IMX93/PROJECT/mcimx93evk_freertos_hello/board.c.obj
 .text.ARM_MPU_Disable
                0x00000000       0x40 CMakeFiles/freertos_hello.elf.dir/D_/IMX93/PROJECT/mcimx93evk_freertos_hello/board.c.obj
 .text.ARM_MPU_SetMemAttrEx
                0x00000000       0x6a CMakeFiles/freertos_hello.elf.dir/D_/IMX93/PROJECT/mcimx93evk_freertos_hello/board.c.obj
 .text.ARM_MPU_SetMemAttr
                0x00000000       0x28 CMakeFiles/freertos_hello.elf.dir/D_/IMX93/PROJECT/mcimx93evk_freertos_hello/board.c.obj
 .text.ARM_MPU_SetRegionEx
                0x00000000       0x2c CMakeFiles/freertos_hello.elf.dir/D_/IMX93/PROJECT/mcimx93evk_freertos_hello/board.c.obj
 .text.ARM_MPU_SetRegion
                0x00000000       0x24 CMakeFiles/freertos_hello.elf.dir/D_/IMX93/PROJECT/mcimx93evk_freertos_hello/board.c.obj
 .rodata.s_clockSourceName
                0x00000000      0x17c CMakeFiles/freertos_hello.elf.dir/D_/IMX93/PROJECT/mcimx93evk_freertos_hello/board.c.obj
 .text.BOARD_McoreSUSPEND
                0x00000000       0x78 CMakeFiles/freertos_hello.elf.dir/D_/IMX93/PROJECT/mcimx93evk_freertos_hello/board.c.obj
 .text.BOARD_ConfigMPU
                0x00000000       0xd4 CMakeFiles/freertos_hello.elf.dir/D_/IMX93/PROJECT/mcimx93evk_freertos_hello/board.c.obj
 .text          0x00000000        0x0 CMakeFiles/freertos_hello.elf.dir/D_/IMX93/PROJECT/mcimx93evk_freertos_hello/clock_config.c.obj
 .data          0x00000000        0x0 CMakeFiles/freertos_hello.elf.dir/D_/IMX93/PROJECT/mcimx93evk_freertos_hello/clock_config.c.obj
 .bss           0x00000000        0x0 CMakeFiles/freertos_hello.elf.dir/D_/IMX93/PROJECT/mcimx93evk_freertos_hello/clock_config.c.obj
 .rodata.s_clockSourceName
                0x00000000      0x17c CMakeFiles/freertos_hello.elf.dir/D_/IMX93/PROJECT/mcimx93evk_freertos_hello/clock_config.c.obj
 .rodata.g_sysPllCfg
                0x00000000       0x14 CMakeFiles/freertos_hello.elf.dir/D_/IMX93/PROJECT/mcimx93evk_freertos_hello/clock_config.c.obj
 .rodata.g_sysPllPfd0Cfg
                0x00000000        0xc CMakeFiles/freertos_hello.elf.dir/D_/IMX93/PROJECT/mcimx93evk_freertos_hello/clock_config.c.obj
 .rodata.g_sysPllPfd1Cfg
                0x00000000        0xc CMakeFiles/freertos_hello.elf.dir/D_/IMX93/PROJECT/mcimx93evk_freertos_hello/clock_config.c.obj
 .rodata.g_sysPllPfd2Cfg
                0x00000000        0xc CMakeFiles/freertos_hello.elf.dir/D_/IMX93/PROJECT/mcimx93evk_freertos_hello/clock_config.c.obj
 .text          0x00000000        0x0 CMakeFiles/freertos_hello.elf.dir/D_/PROJECT/XpressoSDK/SDK_2_14_0_MIMX9352xxxxK/components/lists/fsl_component_generic_list.c.obj
 .data          0x00000000        0x0 CMakeFiles/freertos_hello.elf.dir/D_/PROJECT/XpressoSDK/SDK_2_14_0_MIMX9352xxxxK/components/lists/fsl_component_generic_list.c.obj
 .bss           0x00000000        0x0 CMakeFiles/freertos_hello.elf.dir/D_/PROJECT/XpressoSDK/SDK_2_14_0_MIMX9352xxxxK/components/lists/fsl_component_generic_list.c.obj
 .rodata.s_clockSourceName
                0x00000000      0x17c CMakeFiles/freertos_hello.elf.dir/D_/PROJECT/XpressoSDK/SDK_2_14_0_MIMX9352xxxxK/components/lists/fsl_component_generic_list.c.obj
 .text.DisableGlobalIRQ
                0x00000000       0x22 CMakeFiles/freertos_hello.elf.dir/D_/PROJECT/XpressoSDK/SDK_2_14_0_MIMX9352xxxxK/components/lists/fsl_component_generic_list.c.obj
 .text.EnableGlobalIRQ
                0x00000000       0x20 CMakeFiles/freertos_hello.elf.dir/D_/PROJECT/XpressoSDK/SDK_2_14_0_MIMX9352xxxxK/components/lists/fsl_component_generic_list.c.obj
 .text.LIST_Error_Check
                0x00000000       0x36 CMakeFiles/freertos_hello.elf.dir/D_/PROJECT/XpressoSDK/SDK_2_14_0_MIMX9352xxxxK/components/lists/fsl_component_generic_list.c.obj
 .text.LIST_Init
                0x00000000       0x2e CMakeFiles/freertos_hello.elf.dir/D_/PROJECT/XpressoSDK/SDK_2_14_0_MIMX9352xxxxK/components/lists/fsl_component_generic_list.c.obj
 .text.LIST_GetList
                0x00000000       0x18 CMakeFiles/freertos_hello.elf.dir/D_/PROJECT/XpressoSDK/SDK_2_14_0_MIMX9352xxxxK/components/lists/fsl_component_generic_list.c.obj
 .text.LIST_AddTail
                0x00000000       0x6a CMakeFiles/freertos_hello.elf.dir/D_/PROJECT/XpressoSDK/SDK_2_14_0_MIMX9352xxxxK/components/lists/fsl_component_generic_list.c.obj
 .text.LIST_AddHead
                0x00000000       0x62 CMakeFiles/freertos_hello.elf.dir/D_/PROJECT/XpressoSDK/SDK_2_14_0_MIMX9352xxxxK/components/lists/fsl_component_generic_list.c.obj
 .text.LIST_RemoveHead
                0x00000000       0x5e CMakeFiles/freertos_hello.elf.dir/D_/PROJECT/XpressoSDK/SDK_2_14_0_MIMX9352xxxxK/components/lists/fsl_component_generic_list.c.obj
 .text.LIST_GetHead
                0x00000000       0x18 CMakeFiles/freertos_hello.elf.dir/D_/PROJECT/XpressoSDK/SDK_2_14_0_MIMX9352xxxxK/components/lists/fsl_component_generic_list.c.obj
 .text.LIST_GetNext
                0x00000000       0x18 CMakeFiles/freertos_hello.elf.dir/D_/PROJECT/XpressoSDK/SDK_2_14_0_MIMX9352xxxxK/components/lists/fsl_component_generic_list.c.obj
 .text.LIST_GetPrev
                0x00000000       0x16 CMakeFiles/freertos_hello.elf.dir/D_/PROJECT/XpressoSDK/SDK_2_14_0_MIMX9352xxxxK/components/lists/fsl_component_generic_list.c.obj
 .text.LIST_RemoveElement
                0x00000000       0x84 CMakeFiles/freertos_hello.elf.dir/D_/PROJECT/XpressoSDK/SDK_2_14_0_MIMX9352xxxxK/components/lists/fsl_component_generic_list.c.obj
 .text.LIST_AddPrevElement
                0x00000000       0xa4 CMakeFiles/freertos_hello.elf.dir/D_/PROJECT/XpressoSDK/SDK_2_14_0_MIMX9352xxxxK/components/lists/fsl_component_generic_list.c.obj
 .text.LIST_GetSize
                0x00000000       0x18 CMakeFiles/freertos_hello.elf.dir/D_/PROJECT/XpressoSDK/SDK_2_14_0_MIMX9352xxxxK/components/lists/fsl_component_generic_list.c.obj
 .text.LIST_GetAvailableSize
                0x00000000       0x1e CMakeFiles/freertos_hello.elf.dir/D_/PROJECT/XpressoSDK/SDK_2_14_0_MIMX9352xxxxK/components/lists/fsl_component_generic_list.c.obj
 .debug_info    0x00000000      0x90c CMakeFiles/freertos_hello.elf.dir/D_/PROJECT/XpressoSDK/SDK_2_14_0_MIMX9352xxxxK/components/lists/fsl_component_generic_list.c.obj
 .debug_abbrev  0x00000000      0x299 CMakeFiles/freertos_hello.elf.dir/D_/PROJECT/XpressoSDK/SDK_2_14_0_MIMX9352xxxxK/components/lists/fsl_component_generic_list.c.obj
 .debug_aranges
                0x00000000       0x90 CMakeFiles/freertos_hello.elf.dir/D_/PROJECT/XpressoSDK/SDK_2_14_0_MIMX9352xxxxK/components/lists/fsl_component_generic_list.c.obj
 .debug_rnglists
                0x00000000       0x69 CMakeFiles/freertos_hello.elf.dir/D_/PROJECT/XpressoSDK/SDK_2_14_0_MIMX9352xxxxK/components/lists/fsl_component_generic_list.c.obj
 .debug_line    0x00000000      0x4f2 CMakeFiles/freertos_hello.elf.dir/D_/PROJECT/XpressoSDK/SDK_2_14_0_MIMX9352xxxxK/components/lists/fsl_component_generic_list.c.obj
 .debug_str     0x00000000      0xf47 CMakeFiles/freertos_hello.elf.dir/D_/PROJECT/XpressoSDK/SDK_2_14_0_MIMX9352xxxxK/components/lists/fsl_component_generic_list.c.obj
 .comment       0x00000000       0x46 CMakeFiles/freertos_hello.elf.dir/D_/PROJECT/XpressoSDK/SDK_2_14_0_MIMX9352xxxxK/components/lists/fsl_component_generic_list.c.obj
 .debug_frame   0x00000000      0x254 CMakeFiles/freertos_hello.elf.dir/D_/PROJECT/XpressoSDK/SDK_2_14_0_MIMX9352xxxxK/components/lists/fsl_component_generic_list.c.obj
 .ARM.attributes
                0x00000000       0x3a CMakeFiles/freertos_hello.elf.dir/D_/PROJECT/XpressoSDK/SDK_2_14_0_MIMX9352xxxxK/components/lists/fsl_component_generic_list.c.obj
 .text          0x00000000        0x0 CMakeFiles/freertos_hello.elf.dir/D_/PROJECT/XpressoSDK/SDK_2_14_0_MIMX9352xxxxK/components/uart/fsl_adapter_lpuart.c.obj
 .data          0x00000000        0x0 CMakeFiles/freertos_hello.elf.dir/D_/PROJECT/XpressoSDK/SDK_2_14_0_MIMX9352xxxxK/components/uart/fsl_adapter_lpuart.c.obj
 .bss           0x00000000        0x0 CMakeFiles/freertos_hello.elf.dir/D_/PROJECT/XpressoSDK/SDK_2_14_0_MIMX9352xxxxK/components/uart/fsl_adapter_lpuart.c.obj
 .rodata.s_clockSourceName
                0x00000000      0x17c CMakeFiles/freertos_hello.elf.dir/D_/PROJECT/XpressoSDK/SDK_2_14_0_MIMX9352xxxxK/components/uart/fsl_adapter_lpuart.c.obj
 .text.HAL_UartDeinit
                0x00000000       0x4c CMakeFiles/freertos_hello.elf.dir/D_/PROJECT/XpressoSDK/SDK_2_14_0_MIMX9352xxxxK/components/uart/fsl_adapter_lpuart.c.obj
 .text.HAL_UartReceiveBlocking
                0x00000000       0x8c CMakeFiles/freertos_hello.elf.dir/D_/PROJECT/XpressoSDK/SDK_2_14_0_MIMX9352xxxxK/components/uart/fsl_adapter_lpuart.c.obj
 .text.HAL_UartEnterLowpower
                0x00000000       0x34 CMakeFiles/freertos_hello.elf.dir/D_/PROJECT/XpressoSDK/SDK_2_14_0_MIMX9352xxxxK/components/uart/fsl_adapter_lpuart.c.obj
 .text.HAL_UartExitLowpower
                0x00000000       0x16 CMakeFiles/freertos_hello.elf.dir/D_/PROJECT/XpressoSDK/SDK_2_14_0_MIMX9352xxxxK/components/uart/fsl_adapter_lpuart.c.obj
 .rodata.__func__.3
                0x00000000        0xf CMakeFiles/freertos_hello.elf.dir/D_/PROJECT/XpressoSDK/SDK_2_14_0_MIMX9352xxxxK/components/uart/fsl_adapter_lpuart.c.obj
 .rodata.__func__.2
                0x00000000       0x18 CMakeFiles/freertos_hello.elf.dir/D_/PROJECT/XpressoSDK/SDK_2_14_0_MIMX9352xxxxK/components/uart/fsl_adapter_lpuart.c.obj
 .rodata.__func__.0
                0x00000000       0x16 CMakeFiles/freertos_hello.elf.dir/D_/PROJECT/XpressoSDK/SDK_2_14_0_MIMX9352xxxxK/components/uart/fsl_adapter_lpuart.c.obj
 .text          0x00000000        0x0 CMakeFiles/freertos_hello.elf.dir/D_/PROJECT/XpressoSDK/SDK_2_14_0_MIMX9352xxxxK/components/serial_manager/fsl_component_serial_manager.c.obj
 .data          0x00000000        0x0 CMakeFiles/freertos_hello.elf.dir/D_/PROJECT/XpressoSDK/SDK_2_14_0_MIMX9352xxxxK/components/serial_manager/fsl_component_serial_manager.c.obj
 .bss           0x00000000        0x0 CMakeFiles/freertos_hello.elf.dir/D_/PROJECT/XpressoSDK/SDK_2_14_0_MIMX9352xxxxK/components/serial_manager/fsl_component_serial_manager.c.obj
 .rodata.s_clockSourceName
                0x00000000      0x17c CMakeFiles/freertos_hello.elf.dir/D_/PROJECT/XpressoSDK/SDK_2_14_0_MIMX9352xxxxK/components/serial_manager/fsl_component_serial_manager.c.obj
 .bss.s_pfserialLowpowerCriticalCallbacks
                0x00000000        0x4 CMakeFiles/freertos_hello.elf.dir/D_/PROJECT/XpressoSDK/SDK_2_14_0_MIMX9352xxxxK/components/serial_manager/fsl_component_serial_manager.c.obj
 .text.SerialManager_StartReading
                0x00000000       0x38 CMakeFiles/freertos_hello.elf.dir/D_/PROJECT/XpressoSDK/SDK_2_14_0_MIMX9352xxxxK/components/serial_manager/fsl_component_serial_manager.c.obj
 .text.SerialManager_Read
                0x00000000       0x44 CMakeFiles/freertos_hello.elf.dir/D_/PROJECT/XpressoSDK/SDK_2_14_0_MIMX9352xxxxK/components/serial_manager/fsl_component_serial_manager.c.obj
 .text.SerialManager_Deinit
                0x00000000       0x4e CMakeFiles/freertos_hello.elf.dir/D_/PROJECT/XpressoSDK/SDK_2_14_0_MIMX9352xxxxK/components/serial_manager/fsl_component_serial_manager.c.obj
 .text.SerialManager_CloseWriteHandle
                0x00000000       0x50 CMakeFiles/freertos_hello.elf.dir/D_/PROJECT/XpressoSDK/SDK_2_14_0_MIMX9352xxxxK/components/serial_manager/fsl_component_serial_manager.c.obj
 .text.SerialManager_CloseReadHandle
                0x00000000       0x50 CMakeFiles/freertos_hello.elf.dir/D_/PROJECT/XpressoSDK/SDK_2_14_0_MIMX9352xxxxK/components/serial_manager/fsl_component_serial_manager.c.obj
 .text.SerialManager_ReadBlocking
                0x00000000       0x20 CMakeFiles/freertos_hello.elf.dir/D_/PROJECT/XpressoSDK/SDK_2_14_0_MIMX9352xxxxK/components/serial_manager/fsl_component_serial_manager.c.obj
 .text.SerialManager_EnterLowpower
                0x00000000       0x3c CMakeFiles/freertos_hello.elf.dir/D_/PROJECT/XpressoSDK/SDK_2_14_0_MIMX9352xxxxK/components/serial_manager/fsl_component_serial_manager.c.obj
 .text.SerialManager_ExitLowpower
                0x00000000       0x3c CMakeFiles/freertos_hello.elf.dir/D_/PROJECT/XpressoSDK/SDK_2_14_0_MIMX9352xxxxK/components/serial_manager/fsl_component_serial_manager.c.obj
 .text.SerialManager_SetLowpowerCriticalCb
                0x00000000       0x20 CMakeFiles/freertos_hello.elf.dir/D_/PROJECT/XpressoSDK/SDK_2_14_0_MIMX9352xxxxK/components/serial_manager/fsl_component_serial_manager.c.obj
 .text          0x00000000        0x0 CMakeFiles/freertos_hello.elf.dir/D_/PROJECT/XpressoSDK/SDK_2_14_0_MIMX9352xxxxK/components/serial_manager/fsl_component_serial_port_uart.c.obj
 .data          0x00000000        0x0 CMakeFiles/freertos_hello.elf.dir/D_/PROJECT/XpressoSDK/SDK_2_14_0_MIMX9352xxxxK/components/serial_manager/fsl_component_serial_port_uart.c.obj
 .bss           0x00000000        0x0 CMakeFiles/freertos_hello.elf.dir/D_/PROJECT/XpressoSDK/SDK_2_14_0_MIMX9352xxxxK/components/serial_manager/fsl_component_serial_port_uart.c.obj
 .rodata.s_clockSourceName
                0x00000000      0x17c CMakeFiles/freertos_hello.elf.dir/D_/PROJECT/XpressoSDK/SDK_2_14_0_MIMX9352xxxxK/components/serial_manager/fsl_component_serial_port_uart.c.obj
 .text.Serial_UartDeinit
                0x00000000       0x24 CMakeFiles/freertos_hello.elf.dir/D_/PROJECT/XpressoSDK/SDK_2_14_0_MIMX9352xxxxK/components/serial_manager/fsl_component_serial_port_uart.c.obj
 .text.Serial_UartRead
                0x00000000       0x38 CMakeFiles/freertos_hello.elf.dir/D_/PROJECT/XpressoSDK/SDK_2_14_0_MIMX9352xxxxK/components/serial_manager/fsl_component_serial_port_uart.c.obj
 .text.Serial_UartEnterLowpower
                0x00000000       0x2e CMakeFiles/freertos_hello.elf.dir/D_/PROJECT/XpressoSDK/SDK_2_14_0_MIMX9352xxxxK/components/serial_manager/fsl_component_serial_port_uart.c.obj
 .text.Serial_UartExitLowpower
                0x00000000       0x32 CMakeFiles/freertos_hello.elf.dir/D_/PROJECT/XpressoSDK/SDK_2_14_0_MIMX9352xxxxK/components/serial_manager/fsl_component_serial_port_uart.c.obj
 .text          0x00000000        0x0 CMakeFiles/freertos_hello.elf.dir/D_/PROJECT/XpressoSDK/SDK_2_14_0_MIMX9352xxxxK/devices/MIMX9352/system_MIMX9352_cm33.c.obj
 .data          0x00000000        0x0 CMakeFiles/freertos_hello.elf.dir/D_/PROJECT/XpressoSDK/SDK_2_14_0_MIMX9352xxxxK/devices/MIMX9352/system_MIMX9352_cm33.c.obj
 .bss           0x00000000        0x0 CMakeFiles/freertos_hello.elf.dir/D_/PROJECT/XpressoSDK/SDK_2_14_0_MIMX9352xxxxK/devices/MIMX9352/system_MIMX9352_cm33.c.obj
 .text.SystemCoreClockUpdate
                0x00000000        0xe CMakeFiles/freertos_hello.elf.dir/D_/PROJECT/XpressoSDK/SDK_2_14_0_MIMX9352xxxxK/devices/MIMX9352/system_MIMX9352_cm33.c.obj
 .data          0x00000000        0x0 CMakeFiles/freertos_hello.elf.dir/D_/PROJECT/XpressoSDK/SDK_2_14_0_MIMX9352xxxxK/devices/MIMX9352/gcc/startup_MIMX9352_cm33.S.obj
 .bss           0x00000000        0x0 CMakeFiles/freertos_hello.elf.dir/D_/PROJECT/XpressoSDK/SDK_2_14_0_MIMX9352xxxxK/devices/MIMX9352/gcc/startup_MIMX9352_cm33.S.obj
 .text          0x00000000        0x0 CMakeFiles/freertos_hello.elf.dir/D_/PROJECT/XpressoSDK/SDK_2_14_0_MIMX9352xxxxK/devices/MIMX9352/drivers/fsl_cache.c.obj
 .data          0x00000000        0x0 CMakeFiles/freertos_hello.elf.dir/D_/PROJECT/XpressoSDK/SDK_2_14_0_MIMX9352xxxxK/devices/MIMX9352/drivers/fsl_cache.c.obj
 .bss           0x00000000        0x0 CMakeFiles/freertos_hello.elf.dir/D_/PROJECT/XpressoSDK/SDK_2_14_0_MIMX9352xxxxK/devices/MIMX9352/drivers/fsl_cache.c.obj
 .rodata.s_clockSourceName
                0x00000000      0x17c CMakeFiles/freertos_hello.elf.dir/D_/PROJECT/XpressoSDK/SDK_2_14_0_MIMX9352xxxxK/devices/MIMX9352/drivers/fsl_cache.c.obj
 .rodata.s_xcachectrlBases
                0x00000000        0x8 CMakeFiles/freertos_hello.elf.dir/D_/PROJECT/XpressoSDK/SDK_2_14_0_MIMX9352xxxxK/devices/MIMX9352/drivers/fsl_cache.c.obj
 .rodata.s_xcachePhymemBases
                0x00000000        0x8 CMakeFiles/freertos_hello.elf.dir/D_/PROJECT/XpressoSDK/SDK_2_14_0_MIMX9352xxxxK/devices/MIMX9352/drivers/fsl_cache.c.obj
 .rodata.s_xcachePhymemSizes
                0x00000000        0x8 CMakeFiles/freertos_hello.elf.dir/D_/PROJECT/XpressoSDK/SDK_2_14_0_MIMX9352xxxxK/devices/MIMX9352/drivers/fsl_cache.c.obj
 .text.XCACHE_GetInstanceByAddr
                0x00000000       0x5c CMakeFiles/freertos_hello.elf.dir/D_/PROJECT/XpressoSDK/SDK_2_14_0_MIMX9352xxxxK/devices/MIMX9352/drivers/fsl_cache.c.obj
 .text.XCACHE_EnableCache
                0x00000000       0x2e CMakeFiles/freertos_hello.elf.dir/D_/PROJECT/XpressoSDK/SDK_2_14_0_MIMX9352xxxxK/devices/MIMX9352/drivers/fsl_cache.c.obj
 .text.XCACHE_DisableCache
                0x00000000       0x2e CMakeFiles/freertos_hello.elf.dir/D_/PROJECT/XpressoSDK/SDK_2_14_0_MIMX9352xxxxK/devices/MIMX9352/drivers/fsl_cache.c.obj
 .text.XCACHE_InvalidateCache
                0x00000000       0x36 CMakeFiles/freertos_hello.elf.dir/D_/PROJECT/XpressoSDK/SDK_2_14_0_MIMX9352xxxxK/devices/MIMX9352/drivers/fsl_cache.c.obj
 .text.XCACHE_InvalidateCacheByRange
                0x00000000       0xb0 CMakeFiles/freertos_hello.elf.dir/D_/PROJECT/XpressoSDK/SDK_2_14_0_MIMX9352xxxxK/devices/MIMX9352/drivers/fsl_cache.c.obj
 .text.XCACHE_CleanCache
                0x00000000       0x36 CMakeFiles/freertos_hello.elf.dir/D_/PROJECT/XpressoSDK/SDK_2_14_0_MIMX9352xxxxK/devices/MIMX9352/drivers/fsl_cache.c.obj
 .text.XCACHE_CleanCacheByRange
                0x00000000       0xb0 CMakeFiles/freertos_hello.elf.dir/D_/PROJECT/XpressoSDK/SDK_2_14_0_MIMX9352xxxxK/devices/MIMX9352/drivers/fsl_cache.c.obj
 .text.XCACHE_CleanInvalidateCache
                0x00000000       0x36 CMakeFiles/freertos_hello.elf.dir/D_/PROJECT/XpressoSDK/SDK_2_14_0_MIMX9352xxxxK/devices/MIMX9352/drivers/fsl_cache.c.obj
 .text.XCACHE_CleanInvalidateCacheByRange
                0x00000000       0xac CMakeFiles/freertos_hello.elf.dir/D_/PROJECT/XpressoSDK/SDK_2_14_0_MIMX9352xxxxK/devices/MIMX9352/drivers/fsl_cache.c.obj
 .debug_info    0x00000000      0x778 CMakeFiles/freertos_hello.elf.dir/D_/PROJECT/XpressoSDK/SDK_2_14_0_MIMX9352xxxxK/devices/MIMX9352/drivers/fsl_cache.c.obj
 .debug_abbrev  0x00000000      0x15f CMakeFiles/freertos_hello.elf.dir/D_/PROJECT/XpressoSDK/SDK_2_14_0_MIMX9352xxxxK/devices/MIMX9352/drivers/fsl_cache.c.obj
 .debug_aranges
                0x00000000       0x60 CMakeFiles/freertos_hello.elf.dir/D_/PROJECT/XpressoSDK/SDK_2_14_0_MIMX9352xxxxK/devices/MIMX9352/drivers/fsl_cache.c.obj
 .debug_rnglists
                0x00000000       0x46 CMakeFiles/freertos_hello.elf.dir/D_/PROJECT/XpressoSDK/SDK_2_14_0_MIMX9352xxxxK/devices/MIMX9352/drivers/fsl_cache.c.obj
 .debug_line    0x00000000      0x3ee CMakeFiles/freertos_hello.elf.dir/D_/PROJECT/XpressoSDK/SDK_2_14_0_MIMX9352xxxxK/devices/MIMX9352/drivers/fsl_cache.c.obj
 .debug_str     0x00000000      0xe89 CMakeFiles/freertos_hello.elf.dir/D_/PROJECT/XpressoSDK/SDK_2_14_0_MIMX9352xxxxK/devices/MIMX9352/drivers/fsl_cache.c.obj
 .comment       0x00000000       0x46 CMakeFiles/freertos_hello.elf.dir/D_/PROJECT/XpressoSDK/SDK_2_14_0_MIMX9352xxxxK/devices/MIMX9352/drivers/fsl_cache.c.obj
 .debug_frame   0x00000000      0x164 CMakeFiles/freertos_hello.elf.dir/D_/PROJECT/XpressoSDK/SDK_2_14_0_MIMX9352xxxxK/devices/MIMX9352/drivers/fsl_cache.c.obj
 .ARM.attributes
                0x00000000       0x3a CMakeFiles/freertos_hello.elf.dir/D_/PROJECT/XpressoSDK/SDK_2_14_0_MIMX9352xxxxK/devices/MIMX9352/drivers/fsl_cache.c.obj
 .text          0x00000000        0x0 CMakeFiles/freertos_hello.elf.dir/D_/PROJECT/XpressoSDK/SDK_2_14_0_MIMX9352xxxxK/devices/MIMX9352/drivers/fsl_clock.c.obj
 .data          0x00000000        0x0 CMakeFiles/freertos_hello.elf.dir/D_/PROJECT/XpressoSDK/SDK_2_14_0_MIMX9352xxxxK/devices/MIMX9352/drivers/fsl_clock.c.obj
 .bss           0x00000000        0x0 CMakeFiles/freertos_hello.elf.dir/D_/PROJECT/XpressoSDK/SDK_2_14_0_MIMX9352xxxxK/devices/MIMX9352/drivers/fsl_clock.c.obj
 .text          0x00000000        0x0 CMakeFiles/freertos_hello.elf.dir/D_/PROJECT/XpressoSDK/SDK_2_14_0_MIMX9352xxxxK/devices/MIMX9352/drivers/fsl_common.c.obj
 .data          0x00000000        0x0 CMakeFiles/freertos_hello.elf.dir/D_/PROJECT/XpressoSDK/SDK_2_14_0_MIMX9352xxxxK/devices/MIMX9352/drivers/fsl_common.c.obj
 .bss           0x00000000        0x0 CMakeFiles/freertos_hello.elf.dir/D_/PROJECT/XpressoSDK/SDK_2_14_0_MIMX9352xxxxK/devices/MIMX9352/drivers/fsl_common.c.obj
 .rodata.s_clockSourceName
                0x00000000      0x17c CMakeFiles/freertos_hello.elf.dir/D_/PROJECT/XpressoSDK/SDK_2_14_0_MIMX9352xxxxK/devices/MIMX9352/drivers/fsl_common.c.obj
 .text.SDK_Malloc
                0x00000000       0x92 CMakeFiles/freertos_hello.elf.dir/D_/PROJECT/XpressoSDK/SDK_2_14_0_MIMX9352xxxxK/devices/MIMX9352/drivers/fsl_common.c.obj
 .text.SDK_Free
                0x00000000       0x3a CMakeFiles/freertos_hello.elf.dir/D_/PROJECT/XpressoSDK/SDK_2_14_0_MIMX9352xxxxK/devices/MIMX9352/drivers/fsl_common.c.obj
 .debug_info    0x00000000      0x58c CMakeFiles/freertos_hello.elf.dir/D_/PROJECT/XpressoSDK/SDK_2_14_0_MIMX9352xxxxK/devices/MIMX9352/drivers/fsl_common.c.obj
 .debug_abbrev  0x00000000      0x166 CMakeFiles/freertos_hello.elf.dir/D_/PROJECT/XpressoSDK/SDK_2_14_0_MIMX9352xxxxK/devices/MIMX9352/drivers/fsl_common.c.obj
 .debug_aranges
                0x00000000       0x28 CMakeFiles/freertos_hello.elf.dir/D_/PROJECT/XpressoSDK/SDK_2_14_0_MIMX9352xxxxK/devices/MIMX9352/drivers/fsl_common.c.obj
 .debug_rnglists
                0x00000000       0x1a CMakeFiles/freertos_hello.elf.dir/D_/PROJECT/XpressoSDK/SDK_2_14_0_MIMX9352xxxxK/devices/MIMX9352/drivers/fsl_common.c.obj
 .debug_line    0x00000000      0x24e CMakeFiles/freertos_hello.elf.dir/D_/PROJECT/XpressoSDK/SDK_2_14_0_MIMX9352xxxxK/devices/MIMX9352/drivers/fsl_common.c.obj
 .debug_str     0x00000000      0xdde CMakeFiles/freertos_hello.elf.dir/D_/PROJECT/XpressoSDK/SDK_2_14_0_MIMX9352xxxxK/devices/MIMX9352/drivers/fsl_common.c.obj
 .comment       0x00000000       0x46 CMakeFiles/freertos_hello.elf.dir/D_/PROJECT/XpressoSDK/SDK_2_14_0_MIMX9352xxxxK/devices/MIMX9352/drivers/fsl_common.c.obj
 .debug_frame   0x00000000       0x58 CMakeFiles/freertos_hello.elf.dir/D_/PROJECT/XpressoSDK/SDK_2_14_0_MIMX9352xxxxK/devices/MIMX9352/drivers/fsl_common.c.obj
 .ARM.attributes
                0x00000000       0x3a CMakeFiles/freertos_hello.elf.dir/D_/PROJECT/XpressoSDK/SDK_2_14_0_MIMX9352xxxxK/devices/MIMX9352/drivers/fsl_common.c.obj
 .text          0x00000000        0x0 CMakeFiles/freertos_hello.elf.dir/D_/PROJECT/XpressoSDK/SDK_2_14_0_MIMX9352xxxxK/devices/MIMX9352/drivers/fsl_common_arm.c.obj
 .data          0x00000000        0x0 CMakeFiles/freertos_hello.elf.dir/D_/PROJECT/XpressoSDK/SDK_2_14_0_MIMX9352xxxxK/devices/MIMX9352/drivers/fsl_common_arm.c.obj
 .bss           0x00000000        0x0 CMakeFiles/freertos_hello.elf.dir/D_/PROJECT/XpressoSDK/SDK_2_14_0_MIMX9352xxxxK/devices/MIMX9352/drivers/fsl_common_arm.c.obj
 .rodata.s_clockSourceName
                0x00000000      0x17c CMakeFiles/freertos_hello.elf.dir/D_/PROJECT/XpressoSDK/SDK_2_14_0_MIMX9352xxxxK/devices/MIMX9352/drivers/fsl_common_arm.c.obj
 .rodata        0x00000000       0xb0 CMakeFiles/freertos_hello.elf.dir/D_/PROJECT/XpressoSDK/SDK_2_14_0_MIMX9352xxxxK/devices/MIMX9352/drivers/fsl_common_arm.c.obj
 .text.MSDK_EnableCpuCycleCounter
                0x00000000       0x68 CMakeFiles/freertos_hello.elf.dir/D_/PROJECT/XpressoSDK/SDK_2_14_0_MIMX9352xxxxK/devices/MIMX9352/drivers/fsl_common_arm.c.obj
 .text.MSDK_GetCpuCycleCount
                0x00000000       0x18 CMakeFiles/freertos_hello.elf.dir/D_/PROJECT/XpressoSDK/SDK_2_14_0_MIMX9352xxxxK/devices/MIMX9352/drivers/fsl_common_arm.c.obj
 .text.DelayLoop
                0x00000000       0x20 CMakeFiles/freertos_hello.elf.dir/D_/PROJECT/XpressoSDK/SDK_2_14_0_MIMX9352xxxxK/devices/MIMX9352/drivers/fsl_common_arm.c.obj
 .text.SDK_DelayAtLeastUs
                0x00000000       0x98 CMakeFiles/freertos_hello.elf.dir/D_/PROJECT/XpressoSDK/SDK_2_14_0_MIMX9352xxxxK/devices/MIMX9352/drivers/fsl_common_arm.c.obj
 .rodata.__func__.1
                0x00000000       0x1b CMakeFiles/freertos_hello.elf.dir/D_/PROJECT/XpressoSDK/SDK_2_14_0_MIMX9352xxxxK/devices/MIMX9352/drivers/fsl_common_arm.c.obj
 .rodata.__func__.0
                0x00000000       0x13 CMakeFiles/freertos_hello.elf.dir/D_/PROJECT/XpressoSDK/SDK_2_14_0_MIMX9352xxxxK/devices/MIMX9352/drivers/fsl_common_arm.c.obj
 .debug_info    0x00000000      0x96a CMakeFiles/freertos_hello.elf.dir/D_/PROJECT/XpressoSDK/SDK_2_14_0_MIMX9352xxxxK/devices/MIMX9352/drivers/fsl_common_arm.c.obj
 .debug_abbrev  0x00000000      0x191 CMakeFiles/freertos_hello.elf.dir/D_/PROJECT/XpressoSDK/SDK_2_14_0_MIMX9352xxxxK/devices/MIMX9352/drivers/fsl_common_arm.c.obj
 .debug_aranges
                0x00000000       0x38 CMakeFiles/freertos_hello.elf.dir/D_/PROJECT/XpressoSDK/SDK_2_14_0_MIMX9352xxxxK/devices/MIMX9352/drivers/fsl_common_arm.c.obj
 .debug_rnglists
                0x00000000       0x26 CMakeFiles/freertos_hello.elf.dir/D_/PROJECT/XpressoSDK/SDK_2_14_0_MIMX9352xxxxK/devices/MIMX9352/drivers/fsl_common_arm.c.obj
 .debug_line    0x00000000      0x297 CMakeFiles/freertos_hello.elf.dir/D_/PROJECT/XpressoSDK/SDK_2_14_0_MIMX9352xxxxK/devices/MIMX9352/drivers/fsl_common_arm.c.obj
 .debug_str     0x00000000     0x109a CMakeFiles/freertos_hello.elf.dir/D_/PROJECT/XpressoSDK/SDK_2_14_0_MIMX9352xxxxK/devices/MIMX9352/drivers/fsl_common_arm.c.obj
 .comment       0x00000000       0x46 CMakeFiles/freertos_hello.elf.dir/D_/PROJECT/XpressoSDK/SDK_2_14_0_MIMX9352xxxxK/devices/MIMX9352/drivers/fsl_common_arm.c.obj
 .debug_frame   0x00000000       0xa0 CMakeFiles/freertos_hello.elf.dir/D_/PROJECT/XpressoSDK/SDK_2_14_0_MIMX9352xxxxK/devices/MIMX9352/drivers/fsl_common_arm.c.obj
 .ARM.attributes
                0x00000000       0x3a CMakeFiles/freertos_hello.elf.dir/D_/PROJECT/XpressoSDK/SDK_2_14_0_MIMX9352xxxxK/devices/MIMX9352/drivers/fsl_common_arm.c.obj
 .text          0x00000000        0x0 CMakeFiles/freertos_hello.elf.dir/D_/PROJECT/XpressoSDK/SDK_2_14_0_MIMX9352xxxxK/devices/MIMX9352/drivers/fsl_lpuart.c.obj
 .data          0x00000000        0x0 CMakeFiles/freertos_hello.elf.dir/D_/PROJECT/XpressoSDK/SDK_2_14_0_MIMX9352xxxxK/devices/MIMX9352/drivers/fsl_lpuart.c.obj
 .bss           0x00000000        0x0 CMakeFiles/freertos_hello.elf.dir/D_/PROJECT/XpressoSDK/SDK_2_14_0_MIMX9352xxxxK/devices/MIMX9352/drivers/fsl_lpuart.c.obj
 .text.__NVIC_EnableIRQ
                0x00000000       0x3c CMakeFiles/freertos_hello.elf.dir/D_/PROJECT/XpressoSDK/SDK_2_14_0_MIMX9352xxxxK/devices/MIMX9352/drivers/fsl_lpuart.c.obj
 .rodata.s_clockSourceName
                0x00000000      0x17c CMakeFiles/freertos_hello.elf.dir/D_/PROJECT/XpressoSDK/SDK_2_14_0_MIMX9352xxxxK/devices/MIMX9352/drivers/fsl_lpuart.c.obj
 .text.CLOCK_DisableClock
                0x00000000       0x1c CMakeFiles/freertos_hello.elf.dir/D_/PROJECT/XpressoSDK/SDK_2_14_0_MIMX9352xxxxK/devices/MIMX9352/drivers/fsl_lpuart.c.obj
 .text.EnableIRQ
                0x00000000       0x32 CMakeFiles/freertos_hello.elf.dir/D_/PROJECT/XpressoSDK/SDK_2_14_0_MIMX9352xxxxK/devices/MIMX9352/drivers/fsl_lpuart.c.obj
 .text.DisableGlobalIRQ
                0x00000000       0x22 CMakeFiles/freertos_hello.elf.dir/D_/PROJECT/XpressoSDK/SDK_2_14_0_MIMX9352xxxxK/devices/MIMX9352/drivers/fsl_lpuart.c.obj
 .text.EnableGlobalIRQ
                0x00000000       0x20 CMakeFiles/freertos_hello.elf.dir/D_/PROJECT/XpressoSDK/SDK_2_14_0_MIMX9352xxxxK/devices/MIMX9352/drivers/fsl_lpuart.c.obj
 .rodata.s_lpuartIRQ
                0x00000000       0x12 CMakeFiles/freertos_hello.elf.dir/D_/PROJECT/XpressoSDK/SDK_2_14_0_MIMX9352xxxxK/devices/MIMX9352/drivers/fsl_lpuart.c.obj
 .text.LPUART_TransferGetRxRingBufferLength
                0x00000000       0x64 CMakeFiles/freertos_hello.elf.dir/D_/PROJECT/XpressoSDK/SDK_2_14_0_MIMX9352xxxxK/devices/MIMX9352/drivers/fsl_lpuart.c.obj
 .text.LPUART_TransferIsRxRingBufferFull
                0x00000000       0x50 CMakeFiles/freertos_hello.elf.dir/D_/PROJECT/XpressoSDK/SDK_2_14_0_MIMX9352xxxxK/devices/MIMX9352/drivers/fsl_lpuart.c.obj
 .text.LPUART_WriteNonBlocking
                0x00000000       0x58 CMakeFiles/freertos_hello.elf.dir/D_/PROJECT/XpressoSDK/SDK_2_14_0_MIMX9352xxxxK/devices/MIMX9352/drivers/fsl_lpuart.c.obj
 .text.LPUART_ReadNonBlocking
                0x00000000       0xa8 CMakeFiles/freertos_hello.elf.dir/D_/PROJECT/XpressoSDK/SDK_2_14_0_MIMX9352xxxxK/devices/MIMX9352/drivers/fsl_lpuart.c.obj
 .text.LPUART_Deinit
                0x00000000       0x70 CMakeFiles/freertos_hello.elf.dir/D_/PROJECT/XpressoSDK/SDK_2_14_0_MIMX9352xxxxK/devices/MIMX9352/drivers/fsl_lpuart.c.obj
 .text.LPUART_SetBaudRate
                0x00000000      0x174 CMakeFiles/freertos_hello.elf.dir/D_/PROJECT/XpressoSDK/SDK_2_14_0_MIMX9352xxxxK/devices/MIMX9352/drivers/fsl_lpuart.c.obj
 .text.LPUART_Enable9bitMode
                0x00000000       0x7c CMakeFiles/freertos_hello.elf.dir/D_/PROJECT/XpressoSDK/SDK_2_14_0_MIMX9352xxxxK/devices/MIMX9352/drivers/fsl_lpuart.c.obj
 .text.LPUART_SendAddress
                0x00000000       0x54 CMakeFiles/freertos_hello.elf.dir/D_/PROJECT/XpressoSDK/SDK_2_14_0_MIMX9352xxxxK/devices/MIMX9352/drivers/fsl_lpuart.c.obj
 .text.LPUART_EnableInterrupts
                0x00000000       0x84 CMakeFiles/freertos_hello.elf.dir/D_/PROJECT/XpressoSDK/SDK_2_14_0_MIMX9352xxxxK/devices/MIMX9352/drivers/fsl_lpuart.c.obj
 .text.LPUART_DisableInterrupts
                0x00000000       0x8c CMakeFiles/freertos_hello.elf.dir/D_/PROJECT/XpressoSDK/SDK_2_14_0_MIMX9352xxxxK/devices/MIMX9352/drivers/fsl_lpuart.c.obj
 .text.LPUART_GetEnabledInterrupts
                0x00000000       0x60 CMakeFiles/freertos_hello.elf.dir/D_/PROJECT/XpressoSDK/SDK_2_14_0_MIMX9352xxxxK/devices/MIMX9352/drivers/fsl_lpuart.c.obj
 .text.LPUART_GetStatusFlags
                0x00000000       0x38 CMakeFiles/freertos_hello.elf.dir/D_/PROJECT/XpressoSDK/SDK_2_14_0_MIMX9352xxxxK/devices/MIMX9352/drivers/fsl_lpuart.c.obj
 .text.LPUART_ClearStatusFlags
                0x00000000       0x7c CMakeFiles/freertos_hello.elf.dir/D_/PROJECT/XpressoSDK/SDK_2_14_0_MIMX9352xxxxK/devices/MIMX9352/drivers/fsl_lpuart.c.obj
 .text.LPUART_ReadBlocking
                0x00000000      0x170 CMakeFiles/freertos_hello.elf.dir/D_/PROJECT/XpressoSDK/SDK_2_14_0_MIMX9352xxxxK/devices/MIMX9352/drivers/fsl_lpuart.c.obj
 .text.LPUART_TransferCreateHandle
                0x00000000       0xd4 CMakeFiles/freertos_hello.elf.dir/D_/PROJECT/XpressoSDK/SDK_2_14_0_MIMX9352xxxxK/devices/MIMX9352/drivers/fsl_lpuart.c.obj
 .text.LPUART_TransferStartRingBuffer
                0x00000000       0x80 CMakeFiles/freertos_hello.elf.dir/D_/PROJECT/XpressoSDK/SDK_2_14_0_MIMX9352xxxxK/devices/MIMX9352/drivers/fsl_lpuart.c.obj
 .text.LPUART_TransferStopRingBuffer
                0x00000000       0x70 CMakeFiles/freertos_hello.elf.dir/D_/PROJECT/XpressoSDK/SDK_2_14_0_MIMX9352xxxxK/devices/MIMX9352/drivers/fsl_lpuart.c.obj
 .text.LPUART_TransferSendNonBlocking
                0x00000000       0xd4 CMakeFiles/freertos_hello.elf.dir/D_/PROJECT/XpressoSDK/SDK_2_14_0_MIMX9352xxxxK/devices/MIMX9352/drivers/fsl_lpuart.c.obj
 .text.LPUART_TransferAbortSend
                0x00000000       0x58 CMakeFiles/freertos_hello.elf.dir/D_/PROJECT/XpressoSDK/SDK_2_14_0_MIMX9352xxxxK/devices/MIMX9352/drivers/fsl_lpuart.c.obj
 .text.LPUART_TransferGetSendCount
                0x00000000       0x84 CMakeFiles/freertos_hello.elf.dir/D_/PROJECT/XpressoSDK/SDK_2_14_0_MIMX9352xxxxK/devices/MIMX9352/drivers/fsl_lpuart.c.obj
 .text.LPUART_TransferReceiveNonBlocking
                0x00000000      0x1ec CMakeFiles/freertos_hello.elf.dir/D_/PROJECT/XpressoSDK/SDK_2_14_0_MIMX9352xxxxK/devices/MIMX9352/drivers/fsl_lpuart.c.obj
 .text.LPUART_TransferAbortReceive
                0x00000000       0x60 CMakeFiles/freertos_hello.elf.dir/D_/PROJECT/XpressoSDK/SDK_2_14_0_MIMX9352xxxxK/devices/MIMX9352/drivers/fsl_lpuart.c.obj
 .text.LPUART_TransferGetReceiveCount
                0x00000000       0x78 CMakeFiles/freertos_hello.elf.dir/D_/PROJECT/XpressoSDK/SDK_2_14_0_MIMX9352xxxxK/devices/MIMX9352/drivers/fsl_lpuart.c.obj
 .text.LPUART_TransferHandleIDLEReady
                0x00000000       0xf0 CMakeFiles/freertos_hello.elf.dir/D_/PROJECT/XpressoSDK/SDK_2_14_0_MIMX9352xxxxK/devices/MIMX9352/drivers/fsl_lpuart.c.obj
 .text.LPUART_TransferHandleReceiveDataFull
                0x00000000      0x192 CMakeFiles/freertos_hello.elf.dir/D_/PROJECT/XpressoSDK/SDK_2_14_0_MIMX9352xxxxK/devices/MIMX9352/drivers/fsl_lpuart.c.obj
 .text.LPUART_TransferHandleSendDataEmpty
                0x00000000       0x9e CMakeFiles/freertos_hello.elf.dir/D_/PROJECT/XpressoSDK/SDK_2_14_0_MIMX9352xxxxK/devices/MIMX9352/drivers/fsl_lpuart.c.obj
 .text.LPUART_TransferHandleTransmissionComplete
                0x00000000       0x4c CMakeFiles/freertos_hello.elf.dir/D_/PROJECT/XpressoSDK/SDK_2_14_0_MIMX9352xxxxK/devices/MIMX9352/drivers/fsl_lpuart.c.obj
 .text.LPUART_TransferHandleIRQ
                0x00000000       0xf0 CMakeFiles/freertos_hello.elf.dir/D_/PROJECT/XpressoSDK/SDK_2_14_0_MIMX9352xxxxK/devices/MIMX9352/drivers/fsl_lpuart.c.obj
 .text.LPUART_TransferHandleErrorIRQ
                0x00000000       0x16 CMakeFiles/freertos_hello.elf.dir/D_/PROJECT/XpressoSDK/SDK_2_14_0_MIMX9352xxxxK/devices/MIMX9352/drivers/fsl_lpuart.c.obj
 .rodata.__func__.20
                0x00000000       0x25 CMakeFiles/freertos_hello.elf.dir/D_/PROJECT/XpressoSDK/SDK_2_14_0_MIMX9352xxxxK/devices/MIMX9352/drivers/fsl_lpuart.c.obj
 .rodata.__func__.19
                0x00000000       0x22 CMakeFiles/freertos_hello.elf.dir/D_/PROJECT/XpressoSDK/SDK_2_14_0_MIMX9352xxxxK/devices/MIMX9352/drivers/fsl_lpuart.c.obj
 .rodata.__func__.18
                0x00000000       0x18 CMakeFiles/freertos_hello.elf.dir/D_/PROJECT/XpressoSDK/SDK_2_14_0_MIMX9352xxxxK/devices/MIMX9352/drivers/fsl_lpuart.c.obj
 .rodata.__func__.17
                0x00000000       0x17 CMakeFiles/freertos_hello.elf.dir/D_/PROJECT/XpressoSDK/SDK_2_14_0_MIMX9352xxxxK/devices/MIMX9352/drivers/fsl_lpuart.c.obj
 .rodata.__func__.14
                0x00000000       0x13 CMakeFiles/freertos_hello.elf.dir/D_/PROJECT/XpressoSDK/SDK_2_14_0_MIMX9352xxxxK/devices/MIMX9352/drivers/fsl_lpuart.c.obj
 .rodata.__func__.13
                0x00000000       0x16 CMakeFiles/freertos_hello.elf.dir/D_/PROJECT/XpressoSDK/SDK_2_14_0_MIMX9352xxxxK/devices/MIMX9352/drivers/fsl_lpuart.c.obj
 .rodata.__func__.12
                0x00000000       0x13 CMakeFiles/freertos_hello.elf.dir/D_/PROJECT/XpressoSDK/SDK_2_14_0_MIMX9352xxxxK/devices/MIMX9352/drivers/fsl_lpuart.c.obj
 .rodata.__func__.10
                0x00000000       0x14 CMakeFiles/freertos_hello.elf.dir/D_/PROJECT/XpressoSDK/SDK_2_14_0_MIMX9352xxxxK/devices/MIMX9352/drivers/fsl_lpuart.c.obj
 .rodata.__func__.9
                0x00000000       0x1c CMakeFiles/freertos_hello.elf.dir/D_/PROJECT/XpressoSDK/SDK_2_14_0_MIMX9352xxxxK/devices/MIMX9352/drivers/fsl_lpuart.c.obj
 .rodata.__func__.8
                0x00000000       0x1f CMakeFiles/freertos_hello.elf.dir/D_/PROJECT/XpressoSDK/SDK_2_14_0_MIMX9352xxxxK/devices/MIMX9352/drivers/fsl_lpuart.c.obj
 .rodata.__func__.7
                0x00000000       0x1e CMakeFiles/freertos_hello.elf.dir/D_/PROJECT/XpressoSDK/SDK_2_14_0_MIMX9352xxxxK/devices/MIMX9352/drivers/fsl_lpuart.c.obj
 .rodata.__func__.6
                0x00000000       0x1f CMakeFiles/freertos_hello.elf.dir/D_/PROJECT/XpressoSDK/SDK_2_14_0_MIMX9352xxxxK/devices/MIMX9352/drivers/fsl_lpuart.c.obj
 .rodata.__func__.5
                0x00000000       0x19 CMakeFiles/freertos_hello.elf.dir/D_/PROJECT/XpressoSDK/SDK_2_14_0_MIMX9352xxxxK/devices/MIMX9352/drivers/fsl_lpuart.c.obj
 .rodata.__func__.4
                0x00000000       0x1c CMakeFiles/freertos_hello.elf.dir/D_/PROJECT/XpressoSDK/SDK_2_14_0_MIMX9352xxxxK/devices/MIMX9352/drivers/fsl_lpuart.c.obj
 .rodata.__func__.3
                0x00000000       0x22 CMakeFiles/freertos_hello.elf.dir/D_/PROJECT/XpressoSDK/SDK_2_14_0_MIMX9352xxxxK/devices/MIMX9352/drivers/fsl_lpuart.c.obj
 .rodata.__func__.2
                0x00000000       0x1c CMakeFiles/freertos_hello.elf.dir/D_/PROJECT/XpressoSDK/SDK_2_14_0_MIMX9352xxxxK/devices/MIMX9352/drivers/fsl_lpuart.c.obj
 .rodata.__func__.1
                0x00000000       0x1f CMakeFiles/freertos_hello.elf.dir/D_/PROJECT/XpressoSDK/SDK_2_14_0_MIMX9352xxxxK/devices/MIMX9352/drivers/fsl_lpuart.c.obj
 .rodata.__func__.0
                0x00000000       0x19 CMakeFiles/freertos_hello.elf.dir/D_/PROJECT/XpressoSDK/SDK_2_14_0_MIMX9352xxxxK/devices/MIMX9352/drivers/fsl_lpuart.c.obj
 .text          0x00000000        0x0 CMakeFiles/freertos_hello.elf.dir/D_/PROJECT/XpressoSDK/SDK_2_14_0_MIMX9352xxxxK/devices/MIMX9352/drivers/fsl_rgpio.c.obj
 .data          0x00000000        0x0 CMakeFiles/freertos_hello.elf.dir/D_/PROJECT/XpressoSDK/SDK_2_14_0_MIMX9352xxxxK/devices/MIMX9352/drivers/fsl_rgpio.c.obj
 .bss           0x00000000        0x0 CMakeFiles/freertos_hello.elf.dir/D_/PROJECT/XpressoSDK/SDK_2_14_0_MIMX9352xxxxK/devices/MIMX9352/drivers/fsl_rgpio.c.obj
 .rodata.s_clockSourceName
                0x00000000      0x17c CMakeFiles/freertos_hello.elf.dir/D_/PROJECT/XpressoSDK/SDK_2_14_0_MIMX9352xxxxK/devices/MIMX9352/drivers/fsl_rgpio.c.obj
 .text.RGPIO_PinWrite
                0x00000000       0x36 CMakeFiles/freertos_hello.elf.dir/D_/PROJECT/XpressoSDK/SDK_2_14_0_MIMX9352xxxxK/devices/MIMX9352/drivers/fsl_rgpio.c.obj
 .text.RGPIO_WritePinOutput
                0x00000000       0x22 CMakeFiles/freertos_hello.elf.dir/D_/PROJECT/XpressoSDK/SDK_2_14_0_MIMX9352xxxxK/devices/MIMX9352/drivers/fsl_rgpio.c.obj
 .rodata.s_rgpioBases
                0x00000000       0x10 CMakeFiles/freertos_hello.elf.dir/D_/PROJECT/XpressoSDK/SDK_2_14_0_MIMX9352xxxxK/devices/MIMX9352/drivers/fsl_rgpio.c.obj
 .rodata        0x00000000       0x87 CMakeFiles/freertos_hello.elf.dir/D_/PROJECT/XpressoSDK/SDK_2_14_0_MIMX9352xxxxK/devices/MIMX9352/drivers/fsl_rgpio.c.obj
 .text.RGPIO_GetInstance
                0x00000000       0x58 CMakeFiles/freertos_hello.elf.dir/D_/PROJECT/XpressoSDK/SDK_2_14_0_MIMX9352xxxxK/devices/MIMX9352/drivers/fsl_rgpio.c.obj
 .text.RGPIO_PinInit
                0x00000000       0x70 CMakeFiles/freertos_hello.elf.dir/D_/PROJECT/XpressoSDK/SDK_2_14_0_MIMX9352xxxxK/devices/MIMX9352/drivers/fsl_rgpio.c.obj
 .rodata.__func__.1
                0x00000000       0x12 CMakeFiles/freertos_hello.elf.dir/D_/PROJECT/XpressoSDK/SDK_2_14_0_MIMX9352xxxxK/devices/MIMX9352/drivers/fsl_rgpio.c.obj
 .rodata.__func__.0
                0x00000000        0xe CMakeFiles/freertos_hello.elf.dir/D_/PROJECT/XpressoSDK/SDK_2_14_0_MIMX9352xxxxK/devices/MIMX9352/drivers/fsl_rgpio.c.obj
 .debug_info    0x00000000      0x82b CMakeFiles/freertos_hello.elf.dir/D_/PROJECT/XpressoSDK/SDK_2_14_0_MIMX9352xxxxK/devices/MIMX9352/drivers/fsl_rgpio.c.obj
 .debug_abbrev  0x00000000      0x1c1 CMakeFiles/freertos_hello.elf.dir/D_/PROJECT/XpressoSDK/SDK_2_14_0_MIMX9352xxxxK/devices/MIMX9352/drivers/fsl_rgpio.c.obj
 .debug_aranges
                0x00000000       0x38 CMakeFiles/freertos_hello.elf.dir/D_/PROJECT/XpressoSDK/SDK_2_14_0_MIMX9352xxxxK/devices/MIMX9352/drivers/fsl_rgpio.c.obj
 .debug_rnglists
                0x00000000       0x25 CMakeFiles/freertos_hello.elf.dir/D_/PROJECT/XpressoSDK/SDK_2_14_0_MIMX9352xxxxK/devices/MIMX9352/drivers/fsl_rgpio.c.obj
 .debug_line    0x00000000      0x2c6 CMakeFiles/freertos_hello.elf.dir/D_/PROJECT/XpressoSDK/SDK_2_14_0_MIMX9352xxxxK/devices/MIMX9352/drivers/fsl_rgpio.c.obj
 .debug_str     0x00000000      0xebe CMakeFiles/freertos_hello.elf.dir/D_/PROJECT/XpressoSDK/SDK_2_14_0_MIMX9352xxxxK/devices/MIMX9352/drivers/fsl_rgpio.c.obj
 .comment       0x00000000       0x46 CMakeFiles/freertos_hello.elf.dir/D_/PROJECT/XpressoSDK/SDK_2_14_0_MIMX9352xxxxK/devices/MIMX9352/drivers/fsl_rgpio.c.obj
 .debug_frame   0x00000000       0xa4 CMakeFiles/freertos_hello.elf.dir/D_/PROJECT/XpressoSDK/SDK_2_14_0_MIMX9352xxxxK/devices/MIMX9352/drivers/fsl_rgpio.c.obj
 .ARM.attributes
                0x00000000       0x3a CMakeFiles/freertos_hello.elf.dir/D_/PROJECT/XpressoSDK/SDK_2_14_0_MIMX9352xxxxK/devices/MIMX9352/drivers/fsl_rgpio.c.obj
 .text          0x00000000        0x0 CMakeFiles/freertos_hello.elf.dir/D_/PROJECT/XpressoSDK/SDK_2_14_0_MIMX9352xxxxK/devices/MIMX9352/drivers/fsl_sentinel.c.obj
 .data          0x00000000        0x0 CMakeFiles/freertos_hello.elf.dir/D_/PROJECT/XpressoSDK/SDK_2_14_0_MIMX9352xxxxK/devices/MIMX9352/drivers/fsl_sentinel.c.obj
 .bss           0x00000000        0x0 CMakeFiles/freertos_hello.elf.dir/D_/PROJECT/XpressoSDK/SDK_2_14_0_MIMX9352xxxxK/devices/MIMX9352/drivers/fsl_sentinel.c.obj
 .rodata.s_clockSourceName
                0x00000000      0x17c CMakeFiles/freertos_hello.elf.dir/D_/PROJECT/XpressoSDK/SDK_2_14_0_MIMX9352xxxxK/devices/MIMX9352/drivers/fsl_sentinel.c.obj
 .text.SENTINEL_Init
                0x00000000       0x24 CMakeFiles/freertos_hello.elf.dir/D_/PROJECT/XpressoSDK/SDK_2_14_0_MIMX9352xxxxK/devices/MIMX9352/drivers/fsl_sentinel.c.obj
 .text.SENTINEL_Deinit
                0x00000000        0xe CMakeFiles/freertos_hello.elf.dir/D_/PROJECT/XpressoSDK/SDK_2_14_0_MIMX9352xxxxK/devices/MIMX9352/drivers/fsl_sentinel.c.obj
 .text.SENTINEL_SendMessage
                0x00000000       0x68 CMakeFiles/freertos_hello.elf.dir/D_/PROJECT/XpressoSDK/SDK_2_14_0_MIMX9352xxxxK/devices/MIMX9352/drivers/fsl_sentinel.c.obj
 .rodata        0x00000000      0x11e CMakeFiles/freertos_hello.elf.dir/D_/PROJECT/XpressoSDK/SDK_2_14_0_MIMX9352xxxxK/devices/MIMX9352/drivers/fsl_sentinel.c.obj
 .text.SENTINEL_ReceiveMessage
                0x00000000       0xf4 CMakeFiles/freertos_hello.elf.dir/D_/PROJECT/XpressoSDK/SDK_2_14_0_MIMX9352xxxxK/devices/MIMX9352/drivers/fsl_sentinel.c.obj
 .text.SENTINEL_Command
                0x00000000       0xb8 CMakeFiles/freertos_hello.elf.dir/D_/PROJECT/XpressoSDK/SDK_2_14_0_MIMX9352xxxxK/devices/MIMX9352/drivers/fsl_sentinel.c.obj
 .text.SENTINEL_Ping
                0x00000000       0x2c CMakeFiles/freertos_hello.elf.dir/D_/PROJECT/XpressoSDK/SDK_2_14_0_MIMX9352xxxxK/devices/MIMX9352/drivers/fsl_sentinel.c.obj
 .text.SENTINEL_GetFirmwareVersion
                0x00000000       0x9c CMakeFiles/freertos_hello.elf.dir/D_/PROJECT/XpressoSDK/SDK_2_14_0_MIMX9352xxxxK/devices/MIMX9352/drivers/fsl_sentinel.c.obj
 .text.SENTINEL_GetFirmwareStatus
                0x00000000       0x90 CMakeFiles/freertos_hello.elf.dir/D_/PROJECT/XpressoSDK/SDK_2_14_0_MIMX9352xxxxK/devices/MIMX9352/drivers/fsl_sentinel.c.obj
 .text.SENTINEL_SetPowerDown
                0x00000000       0x90 CMakeFiles/freertos_hello.elf.dir/D_/PROJECT/XpressoSDK/SDK_2_14_0_MIMX9352xxxxK/devices/MIMX9352/drivers/fsl_sentinel.c.obj
 .text.SENTINEL_SessionOpen
                0x00000000       0xd4 CMakeFiles/freertos_hello.elf.dir/D_/PROJECT/XpressoSDK/SDK_2_14_0_MIMX9352xxxxK/devices/MIMX9352/drivers/fsl_sentinel.c.obj
 .text.SENTINEL_SessionClose
                0x00000000       0x8c CMakeFiles/freertos_hello.elf.dir/D_/PROJECT/XpressoSDK/SDK_2_14_0_MIMX9352xxxxK/devices/MIMX9352/drivers/fsl_sentinel.c.obj
 .text.compute_msg_crc
                0x00000000       0x4c CMakeFiles/freertos_hello.elf.dir/D_/PROJECT/XpressoSDK/SDK_2_14_0_MIMX9352xxxxK/devices/MIMX9352/drivers/fsl_sentinel.c.obj
 .text.SENTINEL_RngOpen
                0x00000000       0xc8 CMakeFiles/freertos_hello.elf.dir/D_/PROJECT/XpressoSDK/SDK_2_14_0_MIMX9352xxxxK/devices/MIMX9352/drivers/fsl_sentinel.c.obj
 .text.SENTINEL_RngClose
                0x00000000       0x8c CMakeFiles/freertos_hello.elf.dir/D_/PROJECT/XpressoSDK/SDK_2_14_0_MIMX9352xxxxK/devices/MIMX9352/drivers/fsl_sentinel.c.obj
 DataQuickAccess
                0x00000000     0x1000 CMakeFiles/freertos_hello.elf.dir/D_/PROJECT/XpressoSDK/SDK_2_14_0_MIMX9352xxxxK/devices/MIMX9352/drivers/fsl_sentinel.c.obj
 .text.SENTINEL_RngGetRandom
                0x00000000       0xbc CMakeFiles/freertos_hello.elf.dir/D_/PROJECT/XpressoSDK/SDK_2_14_0_MIMX9352xxxxK/devices/MIMX9352/drivers/fsl_sentinel.c.obj
 .text.SENTINEL_DumpDebugBuffer
                0x00000000       0xb8 CMakeFiles/freertos_hello.elf.dir/D_/PROJECT/XpressoSDK/SDK_2_14_0_MIMX9352xxxxK/devices/MIMX9352/drivers/fsl_sentinel.c.obj
 .text.SENTINEL_RNG_GetRandomData
                0x00000000       0x86 CMakeFiles/freertos_hello.elf.dir/D_/PROJECT/XpressoSDK/SDK_2_14_0_MIMX9352xxxxK/devices/MIMX9352/drivers/fsl_sentinel.c.obj
 .text.SENTINEL_ReleaseRDC
                0x00000000       0xa4 CMakeFiles/freertos_hello.elf.dir/D_/PROJECT/XpressoSDK/SDK_2_14_0_MIMX9352xxxxK/devices/MIMX9352/drivers/fsl_sentinel.c.obj
 .text.SENTINEL_GetSocInfo
                0x00000000       0xbc CMakeFiles/freertos_hello.elf.dir/D_/PROJECT/XpressoSDK/SDK_2_14_0_MIMX9352xxxxK/devices/MIMX9352/drivers/fsl_sentinel.c.obj
 .rodata.__func__.12
                0x00000000       0x18 CMakeFiles/freertos_hello.elf.dir/D_/PROJECT/XpressoSDK/SDK_2_14_0_MIMX9352xxxxK/devices/MIMX9352/drivers/fsl_sentinel.c.obj
 .rodata.__func__.11
                0x00000000       0x11 CMakeFiles/freertos_hello.elf.dir/D_/PROJECT/XpressoSDK/SDK_2_14_0_MIMX9352xxxxK/devices/MIMX9352/drivers/fsl_sentinel.c.obj
 .rodata.__func__.10
                0x00000000       0x1c CMakeFiles/freertos_hello.elf.dir/D_/PROJECT/XpressoSDK/SDK_2_14_0_MIMX9352xxxxK/devices/MIMX9352/drivers/fsl_sentinel.c.obj
 .rodata.__func__.9
                0x00000000       0x1b CMakeFiles/freertos_hello.elf.dir/D_/PROJECT/XpressoSDK/SDK_2_14_0_MIMX9352xxxxK/devices/MIMX9352/drivers/fsl_sentinel.c.obj
 .rodata.__func__.8
                0x00000000       0x16 CMakeFiles/freertos_hello.elf.dir/D_/PROJECT/XpressoSDK/SDK_2_14_0_MIMX9352xxxxK/devices/MIMX9352/drivers/fsl_sentinel.c.obj
 .rodata.__func__.7
                0x00000000       0x15 CMakeFiles/freertos_hello.elf.dir/D_/PROJECT/XpressoSDK/SDK_2_14_0_MIMX9352xxxxK/devices/MIMX9352/drivers/fsl_sentinel.c.obj
 .rodata.__func__.6
                0x00000000       0x16 CMakeFiles/freertos_hello.elf.dir/D_/PROJECT/XpressoSDK/SDK_2_14_0_MIMX9352xxxxK/devices/MIMX9352/drivers/fsl_sentinel.c.obj
 .rodata.__func__.5
                0x00000000       0x11 CMakeFiles/freertos_hello.elf.dir/D_/PROJECT/XpressoSDK/SDK_2_14_0_MIMX9352xxxxK/devices/MIMX9352/drivers/fsl_sentinel.c.obj
 .rodata.__func__.4
                0x00000000       0x12 CMakeFiles/freertos_hello.elf.dir/D_/PROJECT/XpressoSDK/SDK_2_14_0_MIMX9352xxxxK/devices/MIMX9352/drivers/fsl_sentinel.c.obj
 .rodata.__func__.3
                0x00000000       0x16 CMakeFiles/freertos_hello.elf.dir/D_/PROJECT/XpressoSDK/SDK_2_14_0_MIMX9352xxxxK/devices/MIMX9352/drivers/fsl_sentinel.c.obj
 .rodata.__func__.2
                0x00000000       0x19 CMakeFiles/freertos_hello.elf.dir/D_/PROJECT/XpressoSDK/SDK_2_14_0_MIMX9352xxxxK/devices/MIMX9352/drivers/fsl_sentinel.c.obj
 .rodata.__func__.1
                0x00000000       0x14 CMakeFiles/freertos_hello.elf.dir/D_/PROJECT/XpressoSDK/SDK_2_14_0_MIMX9352xxxxK/devices/MIMX9352/drivers/fsl_sentinel.c.obj
 .rodata.__func__.0
                0x00000000       0x14 CMakeFiles/freertos_hello.elf.dir/D_/PROJECT/XpressoSDK/SDK_2_14_0_MIMX9352xxxxK/devices/MIMX9352/drivers/fsl_sentinel.c.obj
 .debug_info    0x00000000     0x14fa CMakeFiles/freertos_hello.elf.dir/D_/PROJECT/XpressoSDK/SDK_2_14_0_MIMX9352xxxxK/devices/MIMX9352/drivers/fsl_sentinel.c.obj
 .debug_abbrev  0x00000000      0x302 CMakeFiles/freertos_hello.elf.dir/D_/PROJECT/XpressoSDK/SDK_2_14_0_MIMX9352xxxxK/devices/MIMX9352/drivers/fsl_sentinel.c.obj
 .debug_aranges
                0x00000000       0xb0 CMakeFiles/freertos_hello.elf.dir/D_/PROJECT/XpressoSDK/SDK_2_14_0_MIMX9352xxxxK/devices/MIMX9352/drivers/fsl_sentinel.c.obj
 .debug_rnglists
                0x00000000       0x8d CMakeFiles/freertos_hello.elf.dir/D_/PROJECT/XpressoSDK/SDK_2_14_0_MIMX9352xxxxK/devices/MIMX9352/drivers/fsl_sentinel.c.obj
 .debug_line    0x00000000      0x807 CMakeFiles/freertos_hello.elf.dir/D_/PROJECT/XpressoSDK/SDK_2_14_0_MIMX9352xxxxK/devices/MIMX9352/drivers/fsl_sentinel.c.obj
 .debug_str     0x00000000     0x14f0 CMakeFiles/freertos_hello.elf.dir/D_/PROJECT/XpressoSDK/SDK_2_14_0_MIMX9352xxxxK/devices/MIMX9352/drivers/fsl_sentinel.c.obj
 .comment       0x00000000       0x46 CMakeFiles/freertos_hello.elf.dir/D_/PROJECT/XpressoSDK/SDK_2_14_0_MIMX9352xxxxK/devices/MIMX9352/drivers/fsl_sentinel.c.obj
 .debug_frame   0x00000000      0x2c0 CMakeFiles/freertos_hello.elf.dir/D_/PROJECT/XpressoSDK/SDK_2_14_0_MIMX9352xxxxK/devices/MIMX9352/drivers/fsl_sentinel.c.obj
 .ARM.attributes
                0x00000000       0x3a CMakeFiles/freertos_hello.elf.dir/D_/PROJECT/XpressoSDK/SDK_2_14_0_MIMX9352xxxxK/devices/MIMX9352/drivers/fsl_sentinel.c.obj
 .text          0x00000000        0x0 CMakeFiles/freertos_hello.elf.dir/D_/PROJECT/XpressoSDK/SDK_2_14_0_MIMX9352xxxxK/rtos/freertos/freertos-kernel/croutine.c.obj
 .data          0x00000000        0x0 CMakeFiles/freertos_hello.elf.dir/D_/PROJECT/XpressoSDK/SDK_2_14_0_MIMX9352xxxxK/rtos/freertos/freertos-kernel/croutine.c.obj
 .bss           0x00000000        0x0 CMakeFiles/freertos_hello.elf.dir/D_/PROJECT/XpressoSDK/SDK_2_14_0_MIMX9352xxxxK/rtos/freertos/freertos-kernel/croutine.c.obj
 .debug_info    0x00000000       0x6c CMakeFiles/freertos_hello.elf.dir/D_/PROJECT/XpressoSDK/SDK_2_14_0_MIMX9352xxxxK/rtos/freertos/freertos-kernel/croutine.c.obj
 .debug_abbrev  0x00000000       0x26 CMakeFiles/freertos_hello.elf.dir/D_/PROJECT/XpressoSDK/SDK_2_14_0_MIMX9352xxxxK/rtos/freertos/freertos-kernel/croutine.c.obj
 .debug_aranges
                0x00000000       0x18 CMakeFiles/freertos_hello.elf.dir/D_/PROJECT/XpressoSDK/SDK_2_14_0_MIMX9352xxxxK/rtos/freertos/freertos-kernel/croutine.c.obj
 .debug_line    0x00000000       0x78 CMakeFiles/freertos_hello.elf.dir/D_/PROJECT/XpressoSDK/SDK_2_14_0_MIMX9352xxxxK/rtos/freertos/freertos-kernel/croutine.c.obj
 .debug_str     0x00000000      0x217 CMakeFiles/freertos_hello.elf.dir/D_/PROJECT/XpressoSDK/SDK_2_14_0_MIMX9352xxxxK/rtos/freertos/freertos-kernel/croutine.c.obj
 .comment       0x00000000       0x46 CMakeFiles/freertos_hello.elf.dir/D_/PROJECT/XpressoSDK/SDK_2_14_0_MIMX9352xxxxK/rtos/freertos/freertos-kernel/croutine.c.obj
 .ARM.attributes
                0x00000000       0x3a CMakeFiles/freertos_hello.elf.dir/D_/PROJECT/XpressoSDK/SDK_2_14_0_MIMX9352xxxxK/rtos/freertos/freertos-kernel/croutine.c.obj
 .text          0x00000000        0x0 CMakeFiles/freertos_hello.elf.dir/D_/PROJECT/XpressoSDK/SDK_2_14_0_MIMX9352xxxxK/rtos/freertos/freertos-kernel/event_groups.c.obj
 .data          0x00000000        0x0 CMakeFiles/freertos_hello.elf.dir/D_/PROJECT/XpressoSDK/SDK_2_14_0_MIMX9352xxxxK/rtos/freertos/freertos-kernel/event_groups.c.obj
 .bss           0x00000000        0x0 CMakeFiles/freertos_hello.elf.dir/D_/PROJECT/XpressoSDK/SDK_2_14_0_MIMX9352xxxxK/rtos/freertos/freertos-kernel/event_groups.c.obj
 .text.xEventGroupCreate
                0x00000000       0x2e CMakeFiles/freertos_hello.elf.dir/D_/PROJECT/XpressoSDK/SDK_2_14_0_MIMX9352xxxxK/rtos/freertos/freertos-kernel/event_groups.c.obj
 .text.xEventGroupSync
                0x00000000      0x120 CMakeFiles/freertos_hello.elf.dir/D_/PROJECT/XpressoSDK/SDK_2_14_0_MIMX9352xxxxK/rtos/freertos/freertos-kernel/event_groups.c.obj
 .text.xEventGroupWaitBits
                0x00000000      0x152 CMakeFiles/freertos_hello.elf.dir/D_/PROJECT/XpressoSDK/SDK_2_14_0_MIMX9352xxxxK/rtos/freertos/freertos-kernel/event_groups.c.obj
 .text.xEventGroupClearBits
                0x00000000       0x52 CMakeFiles/freertos_hello.elf.dir/D_/PROJECT/XpressoSDK/SDK_2_14_0_MIMX9352xxxxK/rtos/freertos/freertos-kernel/event_groups.c.obj
 .text.xEventGroupClearBitsFromISR
                0x00000000       0x28 CMakeFiles/freertos_hello.elf.dir/D_/PROJECT/XpressoSDK/SDK_2_14_0_MIMX9352xxxxK/rtos/freertos/freertos-kernel/event_groups.c.obj
 .text.xEventGroupGetBitsFromISR
                0x00000000       0x28 CMakeFiles/freertos_hello.elf.dir/D_/PROJECT/XpressoSDK/SDK_2_14_0_MIMX9352xxxxK/rtos/freertos/freertos-kernel/event_groups.c.obj
 .text.xEventGroupSetBits
                0x00000000       0xf8 CMakeFiles/freertos_hello.elf.dir/D_/PROJECT/XpressoSDK/SDK_2_14_0_MIMX9352xxxxK/rtos/freertos/freertos-kernel/event_groups.c.obj
 .text.vEventGroupDelete
                0x00000000       0x62 CMakeFiles/freertos_hello.elf.dir/D_/PROJECT/XpressoSDK/SDK_2_14_0_MIMX9352xxxxK/rtos/freertos/freertos-kernel/event_groups.c.obj
 .text.vEventGroupSetBitsCallback
                0x00000000       0x1a CMakeFiles/freertos_hello.elf.dir/D_/PROJECT/XpressoSDK/SDK_2_14_0_MIMX9352xxxxK/rtos/freertos/freertos-kernel/event_groups.c.obj
 .text.vEventGroupClearBitsCallback
                0x00000000       0x1a CMakeFiles/freertos_hello.elf.dir/D_/PROJECT/XpressoSDK/SDK_2_14_0_MIMX9352xxxxK/rtos/freertos/freertos-kernel/event_groups.c.obj
 .text.prvTestWaitCondition
                0x00000000       0x44 CMakeFiles/freertos_hello.elf.dir/D_/PROJECT/XpressoSDK/SDK_2_14_0_MIMX9352xxxxK/rtos/freertos/freertos-kernel/event_groups.c.obj
 .text.xEventGroupSetBitsFromISR
                0x00000000       0x28 CMakeFiles/freertos_hello.elf.dir/D_/PROJECT/XpressoSDK/SDK_2_14_0_MIMX9352xxxxK/rtos/freertos/freertos-kernel/event_groups.c.obj
 .text.uxEventGroupGetNumber
                0x00000000       0x2c CMakeFiles/freertos_hello.elf.dir/D_/PROJECT/XpressoSDK/SDK_2_14_0_MIMX9352xxxxK/rtos/freertos/freertos-kernel/event_groups.c.obj
 .text.vEventGroupSetNumber
                0x00000000       0x1c CMakeFiles/freertos_hello.elf.dir/D_/PROJECT/XpressoSDK/SDK_2_14_0_MIMX9352xxxxK/rtos/freertos/freertos-kernel/event_groups.c.obj
 .debug_info    0x00000000      0x880 CMakeFiles/freertos_hello.elf.dir/D_/PROJECT/XpressoSDK/SDK_2_14_0_MIMX9352xxxxK/rtos/freertos/freertos-kernel/event_groups.c.obj
 .debug_abbrev  0x00000000      0x24e CMakeFiles/freertos_hello.elf.dir/D_/PROJECT/XpressoSDK/SDK_2_14_0_MIMX9352xxxxK/rtos/freertos/freertos-kernel/event_groups.c.obj
 .debug_aranges
                0x00000000       0x88 CMakeFiles/freertos_hello.elf.dir/D_/PROJECT/XpressoSDK/SDK_2_14_0_MIMX9352xxxxK/rtos/freertos/freertos-kernel/event_groups.c.obj
 .debug_rnglists
                0x00000000       0x64 CMakeFiles/freertos_hello.elf.dir/D_/PROJECT/XpressoSDK/SDK_2_14_0_MIMX9352xxxxK/rtos/freertos/freertos-kernel/event_groups.c.obj
 .debug_line    0x00000000      0x613 CMakeFiles/freertos_hello.elf.dir/D_/PROJECT/XpressoSDK/SDK_2_14_0_MIMX9352xxxxK/rtos/freertos/freertos-kernel/event_groups.c.obj
 .debug_str     0x00000000      0x751 CMakeFiles/freertos_hello.elf.dir/D_/PROJECT/XpressoSDK/SDK_2_14_0_MIMX9352xxxxK/rtos/freertos/freertos-kernel/event_groups.c.obj
 .comment       0x00000000       0x46 CMakeFiles/freertos_hello.elf.dir/D_/PROJECT/XpressoSDK/SDK_2_14_0_MIMX9352xxxxK/rtos/freertos/freertos-kernel/event_groups.c.obj
 .debug_frame   0x00000000      0x214 CMakeFiles/freertos_hello.elf.dir/D_/PROJECT/XpressoSDK/SDK_2_14_0_MIMX9352xxxxK/rtos/freertos/freertos-kernel/event_groups.c.obj
 .ARM.attributes
                0x00000000       0x3a CMakeFiles/freertos_hello.elf.dir/D_/PROJECT/XpressoSDK/SDK_2_14_0_MIMX9352xxxxK/rtos/freertos/freertos-kernel/event_groups.c.obj
 .text          0x00000000        0x0 CMakeFiles/freertos_hello.elf.dir/D_/PROJECT/XpressoSDK/SDK_2_14_0_MIMX9352xxxxK/rtos/freertos/freertos-kernel/list.c.obj
 .data          0x00000000        0x0 CMakeFiles/freertos_hello.elf.dir/D_/PROJECT/XpressoSDK/SDK_2_14_0_MIMX9352xxxxK/rtos/freertos/freertos-kernel/list.c.obj
 .bss           0x00000000        0x0 CMakeFiles/freertos_hello.elf.dir/D_/PROJECT/XpressoSDK/SDK_2_14_0_MIMX9352xxxxK/rtos/freertos/freertos-kernel/list.c.obj
 .text          0x00000000        0x0 CMakeFiles/freertos_hello.elf.dir/D_/PROJECT/XpressoSDK/SDK_2_14_0_MIMX9352xxxxK/rtos/freertos/freertos-kernel/queue.c.obj
 .data          0x00000000        0x0 CMakeFiles/freertos_hello.elf.dir/D_/PROJECT/XpressoSDK/SDK_2_14_0_MIMX9352xxxxK/rtos/freertos/freertos-kernel/queue.c.obj
 .bss           0x00000000        0x0 CMakeFiles/freertos_hello.elf.dir/D_/PROJECT/XpressoSDK/SDK_2_14_0_MIMX9352xxxxK/rtos/freertos/freertos-kernel/queue.c.obj
 .text.prvInitialiseMutex
                0x00000000       0x34 CMakeFiles/freertos_hello.elf.dir/D_/PROJECT/XpressoSDK/SDK_2_14_0_MIMX9352xxxxK/rtos/freertos/freertos-kernel/queue.c.obj
 .text.xQueueCreateMutex
                0x00000000       0x30 CMakeFiles/freertos_hello.elf.dir/D_/PROJECT/XpressoSDK/SDK_2_14_0_MIMX9352xxxxK/rtos/freertos/freertos-kernel/queue.c.obj
 .text.xQueueGiveMutexRecursive
                0x00000000       0x5a CMakeFiles/freertos_hello.elf.dir/D_/PROJECT/XpressoSDK/SDK_2_14_0_MIMX9352xxxxK/rtos/freertos/freertos-kernel/queue.c.obj
 .text.xQueueTakeMutexRecursive
                0x00000000       0x5e CMakeFiles/freertos_hello.elf.dir/D_/PROJECT/XpressoSDK/SDK_2_14_0_MIMX9352xxxxK/rtos/freertos/freertos-kernel/queue.c.obj
 .text.xQueueCreateCountingSemaphore
                0x00000000       0x4e CMakeFiles/freertos_hello.elf.dir/D_/PROJECT/XpressoSDK/SDK_2_14_0_MIMX9352xxxxK/rtos/freertos/freertos-kernel/queue.c.obj
 .text.xQueueGenericSend
                0x00000000      0x19a CMakeFiles/freertos_hello.elf.dir/D_/PROJECT/XpressoSDK/SDK_2_14_0_MIMX9352xxxxK/rtos/freertos/freertos-kernel/queue.c.obj
 .text.xQueueGenericSendFromISR
                0x00000000      0x108 CMakeFiles/freertos_hello.elf.dir/D_/PROJECT/XpressoSDK/SDK_2_14_0_MIMX9352xxxxK/rtos/freertos/freertos-kernel/queue.c.obj
 .text.xQueueGiveFromISR
                0x00000000       0xec CMakeFiles/freertos_hello.elf.dir/D_/PROJECT/XpressoSDK/SDK_2_14_0_MIMX9352xxxxK/rtos/freertos/freertos-kernel/queue.c.obj
 .text.xQueueSemaphoreTake
                0x00000000      0x1c6 CMakeFiles/freertos_hello.elf.dir/D_/PROJECT/XpressoSDK/SDK_2_14_0_MIMX9352xxxxK/rtos/freertos/freertos-kernel/queue.c.obj
 .text.xQueuePeek
                0x00000000      0x17c CMakeFiles/freertos_hello.elf.dir/D_/PROJECT/XpressoSDK/SDK_2_14_0_MIMX9352xxxxK/rtos/freertos/freertos-kernel/queue.c.obj
 .text.xQueueReceiveFromISR
                0x00000000       0xe0 CMakeFiles/freertos_hello.elf.dir/D_/PROJECT/XpressoSDK/SDK_2_14_0_MIMX9352xxxxK/rtos/freertos/freertos-kernel/queue.c.obj
 .text.xQueuePeekFromISR
                0x00000000       0x88 CMakeFiles/freertos_hello.elf.dir/D_/PROJECT/XpressoSDK/SDK_2_14_0_MIMX9352xxxxK/rtos/freertos/freertos-kernel/queue.c.obj
 .text.uxQueueMessagesWaiting
                0x00000000       0x2e CMakeFiles/freertos_hello.elf.dir/D_/PROJECT/XpressoSDK/SDK_2_14_0_MIMX9352xxxxK/rtos/freertos/freertos-kernel/queue.c.obj
 .text.uxQueueSpacesAvailable
                0x00000000       0x38 CMakeFiles/freertos_hello.elf.dir/D_/PROJECT/XpressoSDK/SDK_2_14_0_MIMX9352xxxxK/rtos/freertos/freertos-kernel/queue.c.obj
 .text.uxQueueMessagesWaitingFromISR
                0x00000000       0x2a CMakeFiles/freertos_hello.elf.dir/D_/PROJECT/XpressoSDK/SDK_2_14_0_MIMX9352xxxxK/rtos/freertos/freertos-kernel/queue.c.obj
 .text.vQueueDelete
                0x00000000       0x2e CMakeFiles/freertos_hello.elf.dir/D_/PROJECT/XpressoSDK/SDK_2_14_0_MIMX9352xxxxK/rtos/freertos/freertos-kernel/queue.c.obj
 .text.uxQueueGetQueueNumber
                0x00000000       0x18 CMakeFiles/freertos_hello.elf.dir/D_/PROJECT/XpressoSDK/SDK_2_14_0_MIMX9352xxxxK/rtos/freertos/freertos-kernel/queue.c.obj
 .text.vQueueSetQueueNumber
                0x00000000       0x1c CMakeFiles/freertos_hello.elf.dir/D_/PROJECT/XpressoSDK/SDK_2_14_0_MIMX9352xxxxK/rtos/freertos/freertos-kernel/queue.c.obj
 .text.ucQueueGetQueueType
                0x00000000       0x1a CMakeFiles/freertos_hello.elf.dir/D_/PROJECT/XpressoSDK/SDK_2_14_0_MIMX9352xxxxK/rtos/freertos/freertos-kernel/queue.c.obj
 .text.prvGetDisinheritPriorityAfterTimeout
                0x00000000       0x30 CMakeFiles/freertos_hello.elf.dir/D_/PROJECT/XpressoSDK/SDK_2_14_0_MIMX9352xxxxK/rtos/freertos/freertos-kernel/queue.c.obj
 .text.prvCopyDataToQueue
                0x00000000       0xd4 CMakeFiles/freertos_hello.elf.dir/D_/PROJECT/XpressoSDK/SDK_2_14_0_MIMX9352xxxxK/rtos/freertos/freertos-kernel/queue.c.obj
 .text.xQueueIsQueueEmptyFromISR
                0x00000000       0x36 CMakeFiles/freertos_hello.elf.dir/D_/PROJECT/XpressoSDK/SDK_2_14_0_MIMX9352xxxxK/rtos/freertos/freertos-kernel/queue.c.obj
 .text.prvIsQueueFull
                0x00000000       0x30 CMakeFiles/freertos_hello.elf.dir/D_/PROJECT/XpressoSDK/SDK_2_14_0_MIMX9352xxxxK/rtos/freertos/freertos-kernel/queue.c.obj
 .text.xQueueIsQueueFullFromISR
                0x00000000       0x3a CMakeFiles/freertos_hello.elf.dir/D_/PROJECT/XpressoSDK/SDK_2_14_0_MIMX9352xxxxK/rtos/freertos/freertos-kernel/queue.c.obj
 .text.pcQueueGetName
                0x00000000       0x58 CMakeFiles/freertos_hello.elf.dir/D_/PROJECT/XpressoSDK/SDK_2_14_0_MIMX9352xxxxK/rtos/freertos/freertos-kernel/queue.c.obj
 .text.vQueueUnregisterQueue
                0x00000000       0x60 CMakeFiles/freertos_hello.elf.dir/D_/PROJECT/XpressoSDK/SDK_2_14_0_MIMX9352xxxxK/rtos/freertos/freertos-kernel/queue.c.obj
 .text          0x00000000        0x0 CMakeFiles/freertos_hello.elf.dir/D_/PROJECT/XpressoSDK/SDK_2_14_0_MIMX9352xxxxK/rtos/freertos/freertos-kernel/stream_buffer.c.obj
 .data          0x00000000        0x0 CMakeFiles/freertos_hello.elf.dir/D_/PROJECT/XpressoSDK/SDK_2_14_0_MIMX9352xxxxK/rtos/freertos/freertos-kernel/stream_buffer.c.obj
 .bss           0x00000000        0x0 CMakeFiles/freertos_hello.elf.dir/D_/PROJECT/XpressoSDK/SDK_2_14_0_MIMX9352xxxxK/rtos/freertos/freertos-kernel/stream_buffer.c.obj
 .text.xStreamBufferGenericCreate
                0x00000000       0x9e CMakeFiles/freertos_hello.elf.dir/D_/PROJECT/XpressoSDK/SDK_2_14_0_MIMX9352xxxxK/rtos/freertos/freertos-kernel/stream_buffer.c.obj
 .text.vStreamBufferDelete
                0x00000000       0x40 CMakeFiles/freertos_hello.elf.dir/D_/PROJECT/XpressoSDK/SDK_2_14_0_MIMX9352xxxxK/rtos/freertos/freertos-kernel/stream_buffer.c.obj
 .text.xStreamBufferReset
                0x00000000       0x7c CMakeFiles/freertos_hello.elf.dir/D_/PROJECT/XpressoSDK/SDK_2_14_0_MIMX9352xxxxK/rtos/freertos/freertos-kernel/stream_buffer.c.obj
 .text.xStreamBufferSetTriggerLevel
                0x00000000       0x4a CMakeFiles/freertos_hello.elf.dir/D_/PROJECT/XpressoSDK/SDK_2_14_0_MIMX9352xxxxK/rtos/freertos/freertos-kernel/stream_buffer.c.obj
 .text.xStreamBufferSpacesAvailable
                0x00000000       0x64 CMakeFiles/freertos_hello.elf.dir/D_/PROJECT/XpressoSDK/SDK_2_14_0_MIMX9352xxxxK/rtos/freertos/freertos-kernel/stream_buffer.c.obj
 .text.xStreamBufferBytesAvailable
                0x00000000       0x2c CMakeFiles/freertos_hello.elf.dir/D_/PROJECT/XpressoSDK/SDK_2_14_0_MIMX9352xxxxK/rtos/freertos/freertos-kernel/stream_buffer.c.obj
 .text.xStreamBufferSend
                0x00000000      0x162 CMakeFiles/freertos_hello.elf.dir/D_/PROJECT/XpressoSDK/SDK_2_14_0_MIMX9352xxxxK/rtos/freertos/freertos-kernel/stream_buffer.c.obj
 .text.xStreamBufferSendFromISR
                0x00000000       0xae CMakeFiles/freertos_hello.elf.dir/D_/PROJECT/XpressoSDK/SDK_2_14_0_MIMX9352xxxxK/rtos/freertos/freertos-kernel/stream_buffer.c.obj
 .text.prvWriteMessageToBuffer
                0x00000000       0x82 CMakeFiles/freertos_hello.elf.dir/D_/PROJECT/XpressoSDK/SDK_2_14_0_MIMX9352xxxxK/rtos/freertos/freertos-kernel/stream_buffer.c.obj
 .text.xStreamBufferReceive
                0x00000000      0x106 CMakeFiles/freertos_hello.elf.dir/D_/PROJECT/XpressoSDK/SDK_2_14_0_MIMX9352xxxxK/rtos/freertos/freertos-kernel/stream_buffer.c.obj
 .text.xStreamBufferNextMessageLengthBytes
                0x00000000       0x6c CMakeFiles/freertos_hello.elf.dir/D_/PROJECT/XpressoSDK/SDK_2_14_0_MIMX9352xxxxK/rtos/freertos/freertos-kernel/stream_buffer.c.obj
 .text.xStreamBufferReceiveFromISR
                0x00000000       0xa6 CMakeFiles/freertos_hello.elf.dir/D_/PROJECT/XpressoSDK/SDK_2_14_0_MIMX9352xxxxK/rtos/freertos/freertos-kernel/stream_buffer.c.obj
 .text.prvReadMessageFromBuffer
                0x00000000       0x7a CMakeFiles/freertos_hello.elf.dir/D_/PROJECT/XpressoSDK/SDK_2_14_0_MIMX9352xxxxK/rtos/freertos/freertos-kernel/stream_buffer.c.obj
 .text.xStreamBufferIsEmpty
                0x00000000       0x3e CMakeFiles/freertos_hello.elf.dir/D_/PROJECT/XpressoSDK/SDK_2_14_0_MIMX9352xxxxK/rtos/freertos/freertos-kernel/stream_buffer.c.obj
 .text.xStreamBufferIsFull
                0x00000000       0x52 CMakeFiles/freertos_hello.elf.dir/D_/PROJECT/XpressoSDK/SDK_2_14_0_MIMX9352xxxxK/rtos/freertos/freertos-kernel/stream_buffer.c.obj
 .text.xStreamBufferSendCompletedFromISR
                0x00000000       0x60 CMakeFiles/freertos_hello.elf.dir/D_/PROJECT/XpressoSDK/SDK_2_14_0_MIMX9352xxxxK/rtos/freertos/freertos-kernel/stream_buffer.c.obj
 .text.xStreamBufferReceiveCompletedFromISR
                0x00000000       0x60 CMakeFiles/freertos_hello.elf.dir/D_/PROJECT/XpressoSDK/SDK_2_14_0_MIMX9352xxxxK/rtos/freertos/freertos-kernel/stream_buffer.c.obj
 .text.prvWriteBytesToBuffer
                0x00000000       0xb0 CMakeFiles/freertos_hello.elf.dir/D_/PROJECT/XpressoSDK/SDK_2_14_0_MIMX9352xxxxK/rtos/freertos/freertos-kernel/stream_buffer.c.obj
 .text.prvReadBytesFromBuffer
                0x00000000       0xaa CMakeFiles/freertos_hello.elf.dir/D_/PROJECT/XpressoSDK/SDK_2_14_0_MIMX9352xxxxK/rtos/freertos/freertos-kernel/stream_buffer.c.obj
 .text.prvBytesInBuffer
                0x00000000       0x40 CMakeFiles/freertos_hello.elf.dir/D_/PROJECT/XpressoSDK/SDK_2_14_0_MIMX9352xxxxK/rtos/freertos/freertos-kernel/stream_buffer.c.obj
 .text.prvInitialiseNewStreamBuffer
                0x00000000       0x58 CMakeFiles/freertos_hello.elf.dir/D_/PROJECT/XpressoSDK/SDK_2_14_0_MIMX9352xxxxK/rtos/freertos/freertos-kernel/stream_buffer.c.obj
 .text.uxStreamBufferGetStreamBufferNumber
                0x00000000       0x18 CMakeFiles/freertos_hello.elf.dir/D_/PROJECT/XpressoSDK/SDK_2_14_0_MIMX9352xxxxK/rtos/freertos/freertos-kernel/stream_buffer.c.obj
 .text.vStreamBufferSetStreamBufferNumber
                0x00000000       0x1c CMakeFiles/freertos_hello.elf.dir/D_/PROJECT/XpressoSDK/SDK_2_14_0_MIMX9352xxxxK/rtos/freertos/freertos-kernel/stream_buffer.c.obj
 .text.ucStreamBufferGetStreamBufferType
                0x00000000       0x1e CMakeFiles/freertos_hello.elf.dir/D_/PROJECT/XpressoSDK/SDK_2_14_0_MIMX9352xxxxK/rtos/freertos/freertos-kernel/stream_buffer.c.obj
 .debug_info    0x00000000      0xdc9 CMakeFiles/freertos_hello.elf.dir/D_/PROJECT/XpressoSDK/SDK_2_14_0_MIMX9352xxxxK/rtos/freertos/freertos-kernel/stream_buffer.c.obj
 .debug_abbrev  0x00000000      0x274 CMakeFiles/freertos_hello.elf.dir/D_/PROJECT/XpressoSDK/SDK_2_14_0_MIMX9352xxxxK/rtos/freertos/freertos-kernel/stream_buffer.c.obj
 .debug_aranges
                0x00000000       0xd8 CMakeFiles/freertos_hello.elf.dir/D_/PROJECT/XpressoSDK/SDK_2_14_0_MIMX9352xxxxK/rtos/freertos/freertos-kernel/stream_buffer.c.obj
 .debug_rnglists
                0x00000000       0xa5 CMakeFiles/freertos_hello.elf.dir/D_/PROJECT/XpressoSDK/SDK_2_14_0_MIMX9352xxxxK/rtos/freertos/freertos-kernel/stream_buffer.c.obj
 .debug_line    0x00000000      0x9b3 CMakeFiles/freertos_hello.elf.dir/D_/PROJECT/XpressoSDK/SDK_2_14_0_MIMX9352xxxxK/rtos/freertos/freertos-kernel/stream_buffer.c.obj
 .debug_str     0x00000000      0x9b0 CMakeFiles/freertos_hello.elf.dir/D_/PROJECT/XpressoSDK/SDK_2_14_0_MIMX9352xxxxK/rtos/freertos/freertos-kernel/stream_buffer.c.obj
 .comment       0x00000000       0x46 CMakeFiles/freertos_hello.elf.dir/D_/PROJECT/XpressoSDK/SDK_2_14_0_MIMX9352xxxxK/rtos/freertos/freertos-kernel/stream_buffer.c.obj
 .debug_frame   0x00000000      0x398 CMakeFiles/freertos_hello.elf.dir/D_/PROJECT/XpressoSDK/SDK_2_14_0_MIMX9352xxxxK/rtos/freertos/freertos-kernel/stream_buffer.c.obj
 .ARM.attributes
                0x00000000       0x3a CMakeFiles/freertos_hello.elf.dir/D_/PROJECT/XpressoSDK/SDK_2_14_0_MIMX9352xxxxK/rtos/freertos/freertos-kernel/stream_buffer.c.obj
 .text          0x00000000        0x0 CMakeFiles/freertos_hello.elf.dir/D_/PROJECT/XpressoSDK/SDK_2_14_0_MIMX9352xxxxK/rtos/freertos/freertos-kernel/tasks.c.obj
 .data          0x00000000        0x0 CMakeFiles/freertos_hello.elf.dir/D_/PROJECT/XpressoSDK/SDK_2_14_0_MIMX9352xxxxK/rtos/freertos/freertos-kernel/tasks.c.obj
 .bss           0x00000000        0x0 CMakeFiles/freertos_hello.elf.dir/D_/PROJECT/XpressoSDK/SDK_2_14_0_MIMX9352xxxxK/rtos/freertos/freertos-kernel/tasks.c.obj
 .text.vTaskDelete
                0x00000000       0xd0 CMakeFiles/freertos_hello.elf.dir/D_/PROJECT/XpressoSDK/SDK_2_14_0_MIMX9352xxxxK/rtos/freertos/freertos-kernel/tasks.c.obj
 .text.xTaskDelayUntil
                0x00000000       0xc4 CMakeFiles/freertos_hello.elf.dir/D_/PROJECT/XpressoSDK/SDK_2_14_0_MIMX9352xxxxK/rtos/freertos/freertos-kernel/tasks.c.obj
 .text.vTaskDelay
                0x00000000       0x4c CMakeFiles/freertos_hello.elf.dir/D_/PROJECT/XpressoSDK/SDK_2_14_0_MIMX9352xxxxK/rtos/freertos/freertos-kernel/tasks.c.obj
 .text.eTaskGetState
                0x00000000       0xd4 CMakeFiles/freertos_hello.elf.dir/D_/PROJECT/XpressoSDK/SDK_2_14_0_MIMX9352xxxxK/rtos/freertos/freertos-kernel/tasks.c.obj
 .text.uxTaskPriorityGet
                0x00000000       0x34 CMakeFiles/freertos_hello.elf.dir/D_/PROJECT/XpressoSDK/SDK_2_14_0_MIMX9352xxxxK/rtos/freertos/freertos-kernel/tasks.c.obj
 .text.uxTaskPriorityGetFromISR
                0x00000000       0x38 CMakeFiles/freertos_hello.elf.dir/D_/PROJECT/XpressoSDK/SDK_2_14_0_MIMX9352xxxxK/rtos/freertos/freertos-kernel/tasks.c.obj
 .text.vTaskPrioritySet
                0x00000000      0x170 CMakeFiles/freertos_hello.elf.dir/D_/PROJECT/XpressoSDK/SDK_2_14_0_MIMX9352xxxxK/rtos/freertos/freertos-kernel/tasks.c.obj
 .text.prvTaskIsTaskSuspended
                0x00000000       0x50 CMakeFiles/freertos_hello.elf.dir/D_/PROJECT/XpressoSDK/SDK_2_14_0_MIMX9352xxxxK/rtos/freertos/freertos-kernel/tasks.c.obj
 .text.vTaskResume
                0x00000000       0xf0 CMakeFiles/freertos_hello.elf.dir/D_/PROJECT/XpressoSDK/SDK_2_14_0_MIMX9352xxxxK/rtos/freertos/freertos-kernel/tasks.c.obj
 .text.xTaskResumeFromISR
                0x00000000      0x110 CMakeFiles/freertos_hello.elf.dir/D_/PROJECT/XpressoSDK/SDK_2_14_0_MIMX9352xxxxK/rtos/freertos/freertos-kernel/tasks.c.obj
 .text.vTaskEndScheduler
                0x00000000       0x1c CMakeFiles/freertos_hello.elf.dir/D_/PROJECT/XpressoSDK/SDK_2_14_0_MIMX9352xxxxK/rtos/freertos/freertos-kernel/tasks.c.obj
 .text.xTaskGetTickCountFromISR
                0x00000000       0x24 CMakeFiles/freertos_hello.elf.dir/D_/PROJECT/XpressoSDK/SDK_2_14_0_MIMX9352xxxxK/rtos/freertos/freertos-kernel/tasks.c.obj
 .text.uxTaskGetNumberOfTasks
                0x00000000       0x18 CMakeFiles/freertos_hello.elf.dir/D_/PROJECT/XpressoSDK/SDK_2_14_0_MIMX9352xxxxK/rtos/freertos/freertos-kernel/tasks.c.obj
 .text.pcTaskGetName
                0x00000000       0x38 CMakeFiles/freertos_hello.elf.dir/D_/PROJECT/XpressoSDK/SDK_2_14_0_MIMX9352xxxxK/rtos/freertos/freertos-kernel/tasks.c.obj
 .text.uxTaskGetSystemState
                0x00000000      0x11c CMakeFiles/freertos_hello.elf.dir/D_/PROJECT/XpressoSDK/SDK_2_14_0_MIMX9352xxxxK/rtos/freertos/freertos-kernel/tasks.c.obj
 .text.xTaskCatchUpTicks
                0x00000000       0x48 CMakeFiles/freertos_hello.elf.dir/D_/PROJECT/XpressoSDK/SDK_2_14_0_MIMX9352xxxxK/rtos/freertos/freertos-kernel/tasks.c.obj
 .text.vTaskPlaceOnUnorderedEventList
                0x00000000       0x90 CMakeFiles/freertos_hello.elf.dir/D_/PROJECT/XpressoSDK/SDK_2_14_0_MIMX9352xxxxK/rtos/freertos/freertos-kernel/tasks.c.obj
 .text.vTaskRemoveFromUnorderedEventList
                0x00000000      0x164 CMakeFiles/freertos_hello.elf.dir/D_/PROJECT/XpressoSDK/SDK_2_14_0_MIMX9352xxxxK/rtos/freertos/freertos-kernel/tasks.c.obj
 .text.vTaskSetTimeOutState
                0x00000000       0x40 CMakeFiles/freertos_hello.elf.dir/D_/PROJECT/XpressoSDK/SDK_2_14_0_MIMX9352xxxxK/rtos/freertos/freertos-kernel/tasks.c.obj
 .text.uxTaskGetTaskNumber
                0x00000000       0x2c CMakeFiles/freertos_hello.elf.dir/D_/PROJECT/XpressoSDK/SDK_2_14_0_MIMX9352xxxxK/rtos/freertos/freertos-kernel/tasks.c.obj
 .text.vTaskSetTaskNumber
                0x00000000       0x26 CMakeFiles/freertos_hello.elf.dir/D_/PROJECT/XpressoSDK/SDK_2_14_0_MIMX9352xxxxK/rtos/freertos/freertos-kernel/tasks.c.obj
 .text.vTaskSetThreadLocalStoragePointer
                0x00000000       0x50 CMakeFiles/freertos_hello.elf.dir/D_/PROJECT/XpressoSDK/SDK_2_14_0_MIMX9352xxxxK/rtos/freertos/freertos-kernel/tasks.c.obj
 .text.pvTaskGetThreadLocalStoragePointer
                0x00000000       0x50 CMakeFiles/freertos_hello.elf.dir/D_/PROJECT/XpressoSDK/SDK_2_14_0_MIMX9352xxxxK/rtos/freertos/freertos-kernel/tasks.c.obj
 .text.vTaskGetInfo
                0x00000000       0xc8 CMakeFiles/freertos_hello.elf.dir/D_/PROJECT/XpressoSDK/SDK_2_14_0_MIMX9352xxxxK/rtos/freertos/freertos-kernel/tasks.c.obj
 .text.prvListTasksWithinSingleList
                0x00000000       0xa4 CMakeFiles/freertos_hello.elf.dir/D_/PROJECT/XpressoSDK/SDK_2_14_0_MIMX9352xxxxK/rtos/freertos/freertos-kernel/tasks.c.obj
 .text.prvTaskCheckFreeStackSpace
                0x00000000       0x36 CMakeFiles/freertos_hello.elf.dir/D_/PROJECT/XpressoSDK/SDK_2_14_0_MIMX9352xxxxK/rtos/freertos/freertos-kernel/tasks.c.obj
 .text.xTaskGetCurrentTaskHandle
                0x00000000       0x20 CMakeFiles/freertos_hello.elf.dir/D_/PROJECT/XpressoSDK/SDK_2_14_0_MIMX9352xxxxK/rtos/freertos/freertos-kernel/tasks.c.obj
 .text.xTaskPriorityInherit
                0x00000000      0x120 CMakeFiles/freertos_hello.elf.dir/D_/PROJECT/XpressoSDK/SDK_2_14_0_MIMX9352xxxxK/rtos/freertos/freertos-kernel/tasks.c.obj
 .text.xTaskPriorityDisinherit
                0x00000000      0x110 CMakeFiles/freertos_hello.elf.dir/D_/PROJECT/XpressoSDK/SDK_2_14_0_MIMX9352xxxxK/rtos/freertos/freertos-kernel/tasks.c.obj
 .text.vTaskPriorityDisinheritAfterTimeout
                0x00000000      0x138 CMakeFiles/freertos_hello.elf.dir/D_/PROJECT/XpressoSDK/SDK_2_14_0_MIMX9352xxxxK/rtos/freertos/freertos-kernel/tasks.c.obj
 .text.uxTaskResetEventItemValue
                0x00000000       0x30 CMakeFiles/freertos_hello.elf.dir/D_/PROJECT/XpressoSDK/SDK_2_14_0_MIMX9352xxxxK/rtos/freertos/freertos-kernel/tasks.c.obj
 .text.pvTaskIncrementMutexHeldCount
                0x00000000       0x28 CMakeFiles/freertos_hello.elf.dir/D_/PROJECT/XpressoSDK/SDK_2_14_0_MIMX9352xxxxK/rtos/freertos/freertos-kernel/tasks.c.obj
 .text.ulTaskGenericNotifyTake
                0x00000000       0xb0 CMakeFiles/freertos_hello.elf.dir/D_/PROJECT/XpressoSDK/SDK_2_14_0_MIMX9352xxxxK/rtos/freertos/freertos-kernel/tasks.c.obj
 .text.xTaskGenericNotifyWait
                0x00000000       0xe0 CMakeFiles/freertos_hello.elf.dir/D_/PROJECT/XpressoSDK/SDK_2_14_0_MIMX9352xxxxK/rtos/freertos/freertos-kernel/tasks.c.obj
 .text.xTaskGenericNotify
                0x00000000      0x1fc CMakeFiles/freertos_hello.elf.dir/D_/PROJECT/XpressoSDK/SDK_2_14_0_MIMX9352xxxxK/rtos/freertos/freertos-kernel/tasks.c.obj
 .text.xTaskGenericNotifyFromISR
                0x00000000      0x264 CMakeFiles/freertos_hello.elf.dir/D_/PROJECT/XpressoSDK/SDK_2_14_0_MIMX9352xxxxK/rtos/freertos/freertos-kernel/tasks.c.obj
 .text.vTaskGenericNotifyGiveFromISR
                0x00000000      0x1c0 CMakeFiles/freertos_hello.elf.dir/D_/PROJECT/XpressoSDK/SDK_2_14_0_MIMX9352xxxxK/rtos/freertos/freertos-kernel/tasks.c.obj
 .text.xTaskGenericNotifyStateClear
                0x00000000       0x64 CMakeFiles/freertos_hello.elf.dir/D_/PROJECT/XpressoSDK/SDK_2_14_0_MIMX9352xxxxK/rtos/freertos/freertos-kernel/tasks.c.obj
 .text.ulTaskGenericNotifyValueClear
                0x00000000       0x5c CMakeFiles/freertos_hello.elf.dir/D_/PROJECT/XpressoSDK/SDK_2_14_0_MIMX9352xxxxK/rtos/freertos/freertos-kernel/tasks.c.obj
 .text          0x00000000        0x0 CMakeFiles/freertos_hello.elf.dir/D_/PROJECT/XpressoSDK/SDK_2_14_0_MIMX9352xxxxK/rtos/freertos/freertos-kernel/timers.c.obj
 .data          0x00000000        0x0 CMakeFiles/freertos_hello.elf.dir/D_/PROJECT/XpressoSDK/SDK_2_14_0_MIMX9352xxxxK/rtos/freertos/freertos-kernel/timers.c.obj
 .bss           0x00000000        0x0 CMakeFiles/freertos_hello.elf.dir/D_/PROJECT/XpressoSDK/SDK_2_14_0_MIMX9352xxxxK/rtos/freertos/freertos-kernel/timers.c.obj
 .text.xTimerCreate
                0x00000000       0x42 CMakeFiles/freertos_hello.elf.dir/D_/PROJECT/XpressoSDK/SDK_2_14_0_MIMX9352xxxxK/rtos/freertos/freertos-kernel/timers.c.obj
 .text.prvInitialiseNewTimer
                0x00000000       0x62 CMakeFiles/freertos_hello.elf.dir/D_/PROJECT/XpressoSDK/SDK_2_14_0_MIMX9352xxxxK/rtos/freertos/freertos-kernel/timers.c.obj
 .text.xTimerGenericCommand
                0x00000000       0x8c CMakeFiles/freertos_hello.elf.dir/D_/PROJECT/XpressoSDK/SDK_2_14_0_MIMX9352xxxxK/rtos/freertos/freertos-kernel/timers.c.obj
 .text.xTimerGetTimerDaemonTaskHandle
                0x00000000       0x20 CMakeFiles/freertos_hello.elf.dir/D_/PROJECT/XpressoSDK/SDK_2_14_0_MIMX9352xxxxK/rtos/freertos/freertos-kernel/timers.c.obj
 .text.xTimerGetPeriod
                0x00000000       0x26 CMakeFiles/freertos_hello.elf.dir/D_/PROJECT/XpressoSDK/SDK_2_14_0_MIMX9352xxxxK/rtos/freertos/freertos-kernel/timers.c.obj
 .text.vTimerSetReloadMode
                0x00000000       0x58 CMakeFiles/freertos_hello.elf.dir/D_/PROJECT/XpressoSDK/SDK_2_14_0_MIMX9352xxxxK/rtos/freertos/freertos-kernel/timers.c.obj
 .text.xTimerGetReloadMode
                0x00000000       0x44 CMakeFiles/freertos_hello.elf.dir/D_/PROJECT/XpressoSDK/SDK_2_14_0_MIMX9352xxxxK/rtos/freertos/freertos-kernel/timers.c.obj
 .text.uxTimerGetReloadMode
                0x00000000       0x18 CMakeFiles/freertos_hello.elf.dir/D_/PROJECT/XpressoSDK/SDK_2_14_0_MIMX9352xxxxK/rtos/freertos/freertos-kernel/timers.c.obj
 .text.xTimerGetExpiryTime
                0x00000000       0x2a CMakeFiles/freertos_hello.elf.dir/D_/PROJECT/XpressoSDK/SDK_2_14_0_MIMX9352xxxxK/rtos/freertos/freertos-kernel/timers.c.obj
 .text.pcTimerGetName
                0x00000000       0x26 CMakeFiles/freertos_hello.elf.dir/D_/PROJECT/XpressoSDK/SDK_2_14_0_MIMX9352xxxxK/rtos/freertos/freertos-kernel/timers.c.obj
 .text.xTimerIsTimerActive
                0x00000000       0x44 CMakeFiles/freertos_hello.elf.dir/D_/PROJECT/XpressoSDK/SDK_2_14_0_MIMX9352xxxxK/rtos/freertos/freertos-kernel/timers.c.obj
 .text.pvTimerGetTimerID
                0x00000000       0x32 CMakeFiles/freertos_hello.elf.dir/D_/PROJECT/XpressoSDK/SDK_2_14_0_MIMX9352xxxxK/rtos/freertos/freertos-kernel/timers.c.obj
 .text.vTimerSetTimerID
                0x00000000       0x32 CMakeFiles/freertos_hello.elf.dir/D_/PROJECT/XpressoSDK/SDK_2_14_0_MIMX9352xxxxK/rtos/freertos/freertos-kernel/timers.c.obj
 .text.xTimerPendFunctionCallFromISR
                0x00000000       0x40 CMakeFiles/freertos_hello.elf.dir/D_/PROJECT/XpressoSDK/SDK_2_14_0_MIMX9352xxxxK/rtos/freertos/freertos-kernel/timers.c.obj
 .text.xTimerPendFunctionCall
                0x00000000       0x50 CMakeFiles/freertos_hello.elf.dir/D_/PROJECT/XpressoSDK/SDK_2_14_0_MIMX9352xxxxK/rtos/freertos/freertos-kernel/timers.c.obj
 .text.uxTimerGetTimerNumber
                0x00000000       0x18 CMakeFiles/freertos_hello.elf.dir/D_/PROJECT/XpressoSDK/SDK_2_14_0_MIMX9352xxxxK/rtos/freertos/freertos-kernel/timers.c.obj
 .text.vTimerSetTimerNumber
                0x00000000       0x1c CMakeFiles/freertos_hello.elf.dir/D_/PROJECT/XpressoSDK/SDK_2_14_0_MIMX9352xxxxK/rtos/freertos/freertos-kernel/timers.c.obj
 .text          0x00000000        0x0 CMakeFiles/freertos_hello.elf.dir/D_/PROJECT/XpressoSDK/SDK_2_14_0_MIMX9352xxxxK/rtos/freertos/freertos-kernel/portable/GCC/ARM_CM33_NTZ/non_secure/port.c.obj
 .data          0x00000000        0x0 CMakeFiles/freertos_hello.elf.dir/D_/PROJECT/XpressoSDK/SDK_2_14_0_MIMX9352xxxxK/rtos/freertos/freertos-kernel/portable/GCC/ARM_CM33_NTZ/non_secure/port.c.obj
 .bss           0x00000000        0x0 CMakeFiles/freertos_hello.elf.dir/D_/PROJECT/XpressoSDK/SDK_2_14_0_MIMX9352xxxxK/rtos/freertos/freertos-kernel/portable/GCC/ARM_CM33_NTZ/non_secure/port.c.obj
 .text.vPortEndScheduler
                0x00000000       0x20 CMakeFiles/freertos_hello.elf.dir/D_/PROJECT/XpressoSDK/SDK_2_14_0_MIMX9352xxxxK/rtos/freertos/freertos-kernel/portable/GCC/ARM_CM33_NTZ/non_secure/port.c.obj
 .text.xPortIsInsideInterrupt
                0x00000000       0x2a CMakeFiles/freertos_hello.elf.dir/D_/PROJECT/XpressoSDK/SDK_2_14_0_MIMX9352xxxxK/rtos/freertos/freertos-kernel/portable/GCC/ARM_CM33_NTZ/non_secure/port.c.obj
 .text          0x00000000        0x0 CMakeFiles/freertos_hello.elf.dir/D_/PROJECT/XpressoSDK/SDK_2_14_0_MIMX9352xxxxK/rtos/freertos/freertos-kernel/portable/GCC/ARM_CM33_NTZ/non_secure/portasm.c.obj
 .data          0x00000000        0x0 CMakeFiles/freertos_hello.elf.dir/D_/PROJECT/XpressoSDK/SDK_2_14_0_MIMX9352xxxxK/rtos/freertos/freertos-kernel/portable/GCC/ARM_CM33_NTZ/non_secure/portasm.c.obj
 .bss           0x00000000        0x0 CMakeFiles/freertos_hello.elf.dir/D_/PROJECT/XpressoSDK/SDK_2_14_0_MIMX9352xxxxK/rtos/freertos/freertos-kernel/portable/GCC/ARM_CM33_NTZ/non_secure/portasm.c.obj
 .text.xIsPrivileged
                0x00000000       0x14 CMakeFiles/freertos_hello.elf.dir/D_/PROJECT/XpressoSDK/SDK_2_14_0_MIMX9352xxxxK/rtos/freertos/freertos-kernel/portable/GCC/ARM_CM33_NTZ/non_secure/portasm.c.obj
 .text.vRaisePrivilege
                0x00000000       0x10 CMakeFiles/freertos_hello.elf.dir/D_/PROJECT/XpressoSDK/SDK_2_14_0_MIMX9352xxxxK/rtos/freertos/freertos-kernel/portable/GCC/ARM_CM33_NTZ/non_secure/portasm.c.obj
 .text.vResetPrivilege
                0x00000000       0x10 CMakeFiles/freertos_hello.elf.dir/D_/PROJECT/XpressoSDK/SDK_2_14_0_MIMX9352xxxxK/rtos/freertos/freertos-kernel/portable/GCC/ARM_CM33_NTZ/non_secure/portasm.c.obj
 .text          0x00000000        0x0 CMakeFiles/freertos_hello.elf.dir/D_/PROJECT/XpressoSDK/SDK_2_14_0_MIMX9352xxxxK/rtos/freertos/freertos-kernel/portable/MemMang/heap_4.c.obj
 .data          0x00000000        0x0 CMakeFiles/freertos_hello.elf.dir/D_/PROJECT/XpressoSDK/SDK_2_14_0_MIMX9352xxxxK/rtos/freertos/freertos-kernel/portable/MemMang/heap_4.c.obj
 .bss           0x00000000        0x0 CMakeFiles/freertos_hello.elf.dir/D_/PROJECT/XpressoSDK/SDK_2_14_0_MIMX9352xxxxK/rtos/freertos/freertos-kernel/portable/MemMang/heap_4.c.obj
 .rodata.xHeapStructSize
                0x00000000        0x4 CMakeFiles/freertos_hello.elf.dir/D_/PROJECT/XpressoSDK/SDK_2_14_0_MIMX9352xxxxK/rtos/freertos/freertos-kernel/portable/MemMang/heap_4.c.obj
 .text.xPortGetFreeHeapSize
                0x00000000       0x18 CMakeFiles/freertos_hello.elf.dir/D_/PROJECT/XpressoSDK/SDK_2_14_0_MIMX9352xxxxK/rtos/freertos/freertos-kernel/portable/MemMang/heap_4.c.obj
 .text.xPortGetMinimumEverFreeHeapSize
                0x00000000       0x18 CMakeFiles/freertos_hello.elf.dir/D_/PROJECT/XpressoSDK/SDK_2_14_0_MIMX9352xxxxK/rtos/freertos/freertos-kernel/portable/MemMang/heap_4.c.obj
 .text.vPortInitialiseBlocks
                0x00000000        0xe CMakeFiles/freertos_hello.elf.dir/D_/PROJECT/XpressoSDK/SDK_2_14_0_MIMX9352xxxxK/rtos/freertos/freertos-kernel/portable/MemMang/heap_4.c.obj
 .text.pvPortCalloc
                0x00000000       0x60 CMakeFiles/freertos_hello.elf.dir/D_/PROJECT/XpressoSDK/SDK_2_14_0_MIMX9352xxxxK/rtos/freertos/freertos-kernel/portable/MemMang/heap_4.c.obj
 .text.vPortGetHeapStats
                0x00000000       0xbc CMakeFiles/freertos_hello.elf.dir/D_/PROJECT/XpressoSDK/SDK_2_14_0_MIMX9352xxxxK/rtos/freertos/freertos-kernel/portable/MemMang/heap_4.c.obj
 .text          0x00000000        0x0 CMakeFiles/freertos_hello.elf.dir/D_/PROJECT/XpressoSDK/SDK_2_14_0_MIMX9352xxxxK/devices/MIMX9352/utilities/fsl_sbrk.c.obj
 .data          0x00000000        0x0 CMakeFiles/freertos_hello.elf.dir/D_/PROJECT/XpressoSDK/SDK_2_14_0_MIMX9352xxxxK/devices/MIMX9352/utilities/fsl_sbrk.c.obj
 .bss           0x00000000        0x0 CMakeFiles/freertos_hello.elf.dir/D_/PROJECT/XpressoSDK/SDK_2_14_0_MIMX9352xxxxK/devices/MIMX9352/utilities/fsl_sbrk.c.obj
 .text._sbrk    0x00000000       0x68 CMakeFiles/freertos_hello.elf.dir/D_/PROJECT/XpressoSDK/SDK_2_14_0_MIMX9352xxxxK/devices/MIMX9352/utilities/fsl_sbrk.c.obj
 .bss.heap_end.0
                0x00000000        0x4 CMakeFiles/freertos_hello.elf.dir/D_/PROJECT/XpressoSDK/SDK_2_14_0_MIMX9352xxxxK/devices/MIMX9352/utilities/fsl_sbrk.c.obj
 .debug_info    0x00000000      0x116 CMakeFiles/freertos_hello.elf.dir/D_/PROJECT/XpressoSDK/SDK_2_14_0_MIMX9352xxxxK/devices/MIMX9352/utilities/fsl_sbrk.c.obj
 .debug_abbrev  0x00000000       0xd1 CMakeFiles/freertos_hello.elf.dir/D_/PROJECT/XpressoSDK/SDK_2_14_0_MIMX9352xxxxK/devices/MIMX9352/utilities/fsl_sbrk.c.obj
 .debug_aranges
                0x00000000       0x20 CMakeFiles/freertos_hello.elf.dir/D_/PROJECT/XpressoSDK/SDK_2_14_0_MIMX9352xxxxK/devices/MIMX9352/utilities/fsl_sbrk.c.obj
 .debug_rnglists
                0x00000000       0x13 CMakeFiles/freertos_hello.elf.dir/D_/PROJECT/XpressoSDK/SDK_2_14_0_MIMX9352xxxxK/devices/MIMX9352/utilities/fsl_sbrk.c.obj
 .debug_line    0x00000000      0x1e1 CMakeFiles/freertos_hello.elf.dir/D_/PROJECT/XpressoSDK/SDK_2_14_0_MIMX9352xxxxK/devices/MIMX9352/utilities/fsl_sbrk.c.obj
 .debug_str     0x00000000      0x267 CMakeFiles/freertos_hello.elf.dir/D_/PROJECT/XpressoSDK/SDK_2_14_0_MIMX9352xxxxK/devices/MIMX9352/utilities/fsl_sbrk.c.obj
 .comment       0x00000000       0x46 CMakeFiles/freertos_hello.elf.dir/D_/PROJECT/XpressoSDK/SDK_2_14_0_MIMX9352xxxxK/devices/MIMX9352/utilities/fsl_sbrk.c.obj
 .debug_frame   0x00000000       0x34 CMakeFiles/freertos_hello.elf.dir/D_/PROJECT/XpressoSDK/SDK_2_14_0_MIMX9352xxxxK/devices/MIMX9352/utilities/fsl_sbrk.c.obj
 .ARM.attributes
                0x00000000       0x3a CMakeFiles/freertos_hello.elf.dir/D_/PROJECT/XpressoSDK/SDK_2_14_0_MIMX9352xxxxK/devices/MIMX9352/utilities/fsl_sbrk.c.obj
 .data          0x00000000        0x0 CMakeFiles/freertos_hello.elf.dir/D_/PROJECT/XpressoSDK/SDK_2_14_0_MIMX9352xxxxK/devices/MIMX9352/utilities/fsl_memcpy.S.obj
 .bss           0x00000000        0x0 CMakeFiles/freertos_hello.elf.dir/D_/PROJECT/XpressoSDK/SDK_2_14_0_MIMX9352xxxxK/devices/MIMX9352/utilities/fsl_memcpy.S.obj
 .text          0x00000000        0x0 CMakeFiles/freertos_hello.elf.dir/D_/PROJECT/XpressoSDK/SDK_2_14_0_MIMX9352xxxxK/devices/MIMX9352/utilities/fsl_assert.c.obj
 .data          0x00000000        0x0 CMakeFiles/freertos_hello.elf.dir/D_/PROJECT/XpressoSDK/SDK_2_14_0_MIMX9352xxxxK/devices/MIMX9352/utilities/fsl_assert.c.obj
 .bss           0x00000000        0x0 CMakeFiles/freertos_hello.elf.dir/D_/PROJECT/XpressoSDK/SDK_2_14_0_MIMX9352xxxxK/devices/MIMX9352/utilities/fsl_assert.c.obj
 .rodata.s_clockSourceName
                0x00000000      0x17c CMakeFiles/freertos_hello.elf.dir/D_/PROJECT/XpressoSDK/SDK_2_14_0_MIMX9352xxxxK/devices/MIMX9352/utilities/fsl_assert.c.obj
 .text          0x00000000        0x0 CMakeFiles/freertos_hello.elf.dir/D_/PROJECT/XpressoSDK/SDK_2_14_0_MIMX9352xxxxK/devices/MIMX9352/utilities/str/fsl_str.c.obj
 .data          0x00000000        0x0 CMakeFiles/freertos_hello.elf.dir/D_/PROJECT/XpressoSDK/SDK_2_14_0_MIMX9352xxxxK/devices/MIMX9352/utilities/str/fsl_str.c.obj
 .bss           0x00000000        0x0 CMakeFiles/freertos_hello.elf.dir/D_/PROJECT/XpressoSDK/SDK_2_14_0_MIMX9352xxxxK/devices/MIMX9352/utilities/str/fsl_str.c.obj
 .rodata.s_clockSourceName
                0x00000000      0x17c CMakeFiles/freertos_hello.elf.dir/D_/PROJECT/XpressoSDK/SDK_2_14_0_MIMX9352xxxxK/devices/MIMX9352/utilities/str/fsl_str.c.obj
 .text.ScanIsWhiteSpace
                0x00000000       0x44 CMakeFiles/freertos_hello.elf.dir/D_/PROJECT/XpressoSDK/SDK_2_14_0_MIMX9352xxxxK/devices/MIMX9352/utilities/str/fsl_str.c.obj
 .text.ScanIgnoreWhiteSpace
                0x00000000       0x46 CMakeFiles/freertos_hello.elf.dir/D_/PROJECT/XpressoSDK/SDK_2_14_0_MIMX9352xxxxK/devices/MIMX9352/utilities/str/fsl_str.c.obj
 .text.StrFormatScanIsFormatStarting
                0x00000000       0x36 CMakeFiles/freertos_hello.elf.dir/D_/PROJECT/XpressoSDK/SDK_2_14_0_MIMX9352xxxxK/devices/MIMX9352/utilities/str/fsl_str.c.obj
 .text.StrFormatScanGetBase
                0x00000000       0x4c CMakeFiles/freertos_hello.elf.dir/D_/PROJECT/XpressoSDK/SDK_2_14_0_MIMX9352xxxxK/devices/MIMX9352/utilities/str/fsl_str.c.obj
 .text.StrFormatScanCheckSymbol
                0x00000000       0x48 CMakeFiles/freertos_hello.elf.dir/D_/PROJECT/XpressoSDK/SDK_2_14_0_MIMX9352xxxxK/devices/MIMX9352/utilities/str/fsl_str.c.obj
 .text.StrFormatScanFillInteger
                0x00000000       0x46 CMakeFiles/freertos_hello.elf.dir/D_/PROJECT/XpressoSDK/SDK_2_14_0_MIMX9352xxxxK/devices/MIMX9352/utilities/str/fsl_str.c.obj
 .text.StrFormatScanfStringHandling
                0x00000000      0x18a CMakeFiles/freertos_hello.elf.dir/D_/PROJECT/XpressoSDK/SDK_2_14_0_MIMX9352xxxxK/devices/MIMX9352/utilities/str/fsl_str.c.obj
 .text.StrFormatScanf
                0x00000000      0x2e6 CMakeFiles/freertos_hello.elf.dir/D_/PROJECT/XpressoSDK/SDK_2_14_0_MIMX9352xxxxK/devices/MIMX9352/utilities/str/fsl_str.c.obj
 .text          0x00000000        0x0 CMakeFiles/freertos_hello.elf.dir/D_/PROJECT/XpressoSDK/SDK_2_14_0_MIMX9352xxxxK/devices/MIMX9352/utilities/debug_console/fsl_debug_console.c.obj
 .data          0x00000000        0x0 CMakeFiles/freertos_hello.elf.dir/D_/PROJECT/XpressoSDK/SDK_2_14_0_MIMX9352xxxxK/devices/MIMX9352/utilities/debug_console/fsl_debug_console.c.obj
 .bss           0x00000000        0x0 CMakeFiles/freertos_hello.elf.dir/D_/PROJECT/XpressoSDK/SDK_2_14_0_MIMX9352xxxxK/devices/MIMX9352/utilities/debug_console/fsl_debug_console.c.obj
 .rodata.s_clockSourceName
                0x00000000      0x17c CMakeFiles/freertos_hello.elf.dir/D_/PROJECT/XpressoSDK/SDK_2_14_0_MIMX9352xxxxK/devices/MIMX9352/utilities/debug_console/fsl_debug_console.c.obj
 .text.DbgConsole_ReadOneCharacter
                0x00000000       0x44 CMakeFiles/freertos_hello.elf.dir/D_/PROJECT/XpressoSDK/SDK_2_14_0_MIMX9352xxxxK/devices/MIMX9352/utilities/debug_console/fsl_debug_console.c.obj
 .text.DbgConsole_SendData
                0x00000000       0x40 CMakeFiles/freertos_hello.elf.dir/D_/PROJECT/XpressoSDK/SDK_2_14_0_MIMX9352xxxxK/devices/MIMX9352/utilities/debug_console/fsl_debug_console.c.obj
 .text.DbgConsole_ReadLine
                0x00000000       0xa8 CMakeFiles/freertos_hello.elf.dir/D_/PROJECT/XpressoSDK/SDK_2_14_0_MIMX9352xxxxK/devices/MIMX9352/utilities/debug_console/fsl_debug_console.c.obj
 .text.DbgConsole_ReadCharacter
                0x00000000       0x44 CMakeFiles/freertos_hello.elf.dir/D_/PROJECT/XpressoSDK/SDK_2_14_0_MIMX9352xxxxK/devices/MIMX9352/utilities/debug_console/fsl_debug_console.c.obj
 .text.DbgConsole_EnterLowpower
                0x00000000       0x30 CMakeFiles/freertos_hello.elf.dir/D_/PROJECT/XpressoSDK/SDK_2_14_0_MIMX9352xxxxK/devices/MIMX9352/utilities/debug_console/fsl_debug_console.c.obj
 .text.DbgConsole_ExitLowpower
                0x00000000       0x30 CMakeFiles/freertos_hello.elf.dir/D_/PROJECT/XpressoSDK/SDK_2_14_0_MIMX9352xxxxK/devices/MIMX9352/utilities/debug_console/fsl_debug_console.c.obj
 .text.DbgConsole_Deinit
                0x00000000       0x64 CMakeFiles/freertos_hello.elf.dir/D_/PROJECT/XpressoSDK/SDK_2_14_0_MIMX9352xxxxK/devices/MIMX9352/utilities/debug_console/fsl_debug_console.c.obj
 .text.DbgConsole_Flush
                0x00000000       0x10 CMakeFiles/freertos_hello.elf.dir/D_/PROJECT/XpressoSDK/SDK_2_14_0_MIMX9352xxxxK/devices/MIMX9352/utilities/debug_console/fsl_debug_console.c.obj
 .text.DbgConsole_Putchar
                0x00000000       0x1c CMakeFiles/freertos_hello.elf.dir/D_/PROJECT/XpressoSDK/SDK_2_14_0_MIMX9352xxxxK/devices/MIMX9352/utilities/debug_console/fsl_debug_console.c.obj
 .text.DbgConsole_Scanf
                0x00000000       0x46 CMakeFiles/freertos_hello.elf.dir/D_/PROJECT/XpressoSDK/SDK_2_14_0_MIMX9352xxxxK/devices/MIMX9352/utilities/debug_console/fsl_debug_console.c.obj
 .text.DbgConsole_BlockingPrintf
                0x00000000       0x2c CMakeFiles/freertos_hello.elf.dir/D_/PROJECT/XpressoSDK/SDK_2_14_0_MIMX9352xxxxK/devices/MIMX9352/utilities/debug_console/fsl_debug_console.c.obj
 .text.DbgConsole_BlockingVprintf
                0x00000000       0x88 CMakeFiles/freertos_hello.elf.dir/D_/PROJECT/XpressoSDK/SDK_2_14_0_MIMX9352xxxxK/devices/MIMX9352/utilities/debug_console/fsl_debug_console.c.obj
 .text.DbgConsole_Getchar
                0x00000000       0x2c CMakeFiles/freertos_hello.elf.dir/D_/PROJECT/XpressoSDK/SDK_2_14_0_MIMX9352xxxxK/devices/MIMX9352/utilities/debug_console/fsl_debug_console.c.obj
 .text          0x00000000       0x30 C:/Users/Admin/.mcuxpressotools/arm-gnu-toolchain-14.2.rel1-mingw-w64-x86_64-arm-none-eabi/bin/../lib/gcc/arm-none-eabi/14.2.1/thumb/v8-m.main+fp/hard\libgcc.a(_aeabi_uldivmod.o)
 .data          0x00000000        0x0 C:/Users/Admin/.mcuxpressotools/arm-gnu-toolchain-14.2.rel1-mingw-w64-x86_64-arm-none-eabi/bin/../lib/gcc/arm-none-eabi/14.2.1/thumb/v8-m.main+fp/hard\libgcc.a(_aeabi_uldivmod.o)
 .bss           0x00000000        0x0 C:/Users/Admin/.mcuxpressotools/arm-gnu-toolchain-14.2.rel1-mingw-w64-x86_64-arm-none-eabi/bin/../lib/gcc/arm-none-eabi/14.2.1/thumb/v8-m.main+fp/hard\libgcc.a(_aeabi_uldivmod.o)
 .debug_line_str
                0x00000000       0xd1 C:/Users/Admin/.mcuxpressotools/arm-gnu-toolchain-14.2.rel1-mingw-w64-x86_64-arm-none-eabi/bin/../lib/gcc/arm-none-eabi/14.2.1/thumb/v8-m.main+fp/hard\libgcc.a(_aeabi_uldivmod.o)
 .debug_frame   0x00000000       0x2c C:/Users/Admin/.mcuxpressotools/arm-gnu-toolchain-14.2.rel1-mingw-w64-x86_64-arm-none-eabi/bin/../lib/gcc/arm-none-eabi/14.2.1/thumb/v8-m.main+fp/hard\libgcc.a(_aeabi_uldivmod.o)
 .ARM.attributes
                0x00000000       0x26 C:/Users/Admin/.mcuxpressotools/arm-gnu-toolchain-14.2.rel1-mingw-w64-x86_64-arm-none-eabi/bin/../lib/gcc/arm-none-eabi/14.2.1/thumb/v8-m.main+fp/hard\libgcc.a(_aeabi_uldivmod.o)
 .text          0x00000000        0x0 C:/Users/Admin/.mcuxpressotools/arm-gnu-toolchain-14.2.rel1-mingw-w64-x86_64-arm-none-eabi/bin/../lib/gcc/arm-none-eabi/14.2.1/thumb/v8-m.main+fp/hard\libgcc.a(_udivmoddi4.o)
 .data          0x00000000        0x0 C:/Users/Admin/.mcuxpressotools/arm-gnu-toolchain-14.2.rel1-mingw-w64-x86_64-arm-none-eabi/bin/../lib/gcc/arm-none-eabi/14.2.1/thumb/v8-m.main+fp/hard\libgcc.a(_udivmoddi4.o)
 .bss           0x00000000        0x0 C:/Users/Admin/.mcuxpressotools/arm-gnu-toolchain-14.2.rel1-mingw-w64-x86_64-arm-none-eabi/bin/../lib/gcc/arm-none-eabi/14.2.1/thumb/v8-m.main+fp/hard\libgcc.a(_udivmoddi4.o)
 .text.__udivmoddi4
                0x00000000      0x34c C:/Users/Admin/.mcuxpressotools/arm-gnu-toolchain-14.2.rel1-mingw-w64-x86_64-arm-none-eabi/bin/../lib/gcc/arm-none-eabi/14.2.1/thumb/v8-m.main+fp/hard\libgcc.a(_udivmoddi4.o)
 .ARM.extab.text.__udivmoddi4
                0x00000000        0x0 C:/Users/Admin/.mcuxpressotools/arm-gnu-toolchain-14.2.rel1-mingw-w64-x86_64-arm-none-eabi/bin/../lib/gcc/arm-none-eabi/14.2.1/thumb/v8-m.main+fp/hard\libgcc.a(_udivmoddi4.o)
 .ARM.exidx.text.__udivmoddi4
                0x00000000        0x8 C:/Users/Admin/.mcuxpressotools/arm-gnu-toolchain-14.2.rel1-mingw-w64-x86_64-arm-none-eabi/bin/../lib/gcc/arm-none-eabi/14.2.1/thumb/v8-m.main+fp/hard\libgcc.a(_udivmoddi4.o)
 .debug_frame   0x00000000       0x38 C:/Users/Admin/.mcuxpressotools/arm-gnu-toolchain-14.2.rel1-mingw-w64-x86_64-arm-none-eabi/bin/../lib/gcc/arm-none-eabi/14.2.1/thumb/v8-m.main+fp/hard\libgcc.a(_udivmoddi4.o)
 .ARM.attributes
                0x00000000       0x38 C:/Users/Admin/.mcuxpressotools/arm-gnu-toolchain-14.2.rel1-mingw-w64-x86_64-arm-none-eabi/bin/../lib/gcc/arm-none-eabi/14.2.1/thumb/v8-m.main+fp/hard\libgcc.a(_udivmoddi4.o)
 .text          0x00000000        0x4 C:/Users/Admin/.mcuxpressotools/arm-gnu-toolchain-14.2.rel1-mingw-w64-x86_64-arm-none-eabi/bin/../lib/gcc/arm-none-eabi/14.2.1/thumb/v8-m.main+fp/hard\libgcc.a(_dvmd_tls.o)
 .data          0x00000000        0x0 C:/Users/Admin/.mcuxpressotools/arm-gnu-toolchain-14.2.rel1-mingw-w64-x86_64-arm-none-eabi/bin/../lib/gcc/arm-none-eabi/14.2.1/thumb/v8-m.main+fp/hard\libgcc.a(_dvmd_tls.o)
 .bss           0x00000000        0x0 C:/Users/Admin/.mcuxpressotools/arm-gnu-toolchain-14.2.rel1-mingw-w64-x86_64-arm-none-eabi/bin/../lib/gcc/arm-none-eabi/14.2.1/thumb/v8-m.main+fp/hard\libgcc.a(_dvmd_tls.o)
 .debug_line_str
                0x00000000       0xd5 C:/Users/Admin/.mcuxpressotools/arm-gnu-toolchain-14.2.rel1-mingw-w64-x86_64-arm-none-eabi/bin/../lib/gcc/arm-none-eabi/14.2.1/thumb/v8-m.main+fp/hard\libgcc.a(_dvmd_tls.o)
 .ARM.attributes
                0x00000000       0x26 C:/Users/Admin/.mcuxpressotools/arm-gnu-toolchain-14.2.rel1-mingw-w64-x86_64-arm-none-eabi/bin/../lib/gcc/arm-none-eabi/14.2.1/thumb/v8-m.main+fp/hard\libgcc.a(_dvmd_tls.o)
 .text          0x00000000        0x0 C:/Users/Admin/.mcuxpressotools/arm-gnu-toolchain-14.2.rel1-mingw-w64-x86_64-arm-none-eabi/bin/../lib/gcc/arm-none-eabi/14.2.1/thumb/v8-m.main+fp/hard\libc_nano.a(libc_a-exit.o)
 .data          0x00000000        0x0 C:/Users/Admin/.mcuxpressotools/arm-gnu-toolchain-14.2.rel1-mingw-w64-x86_64-arm-none-eabi/bin/../lib/gcc/arm-none-eabi/14.2.1/thumb/v8-m.main+fp/hard\libc_nano.a(libc_a-exit.o)
 .bss           0x00000000        0x0 C:/Users/Admin/.mcuxpressotools/arm-gnu-toolchain-14.2.rel1-mingw-w64-x86_64-arm-none-eabi/bin/../lib/gcc/arm-none-eabi/14.2.1/thumb/v8-m.main+fp/hard\libc_nano.a(libc_a-exit.o)
 .text          0x00000000        0x0 C:/Users/Admin/.mcuxpressotools/arm-gnu-toolchain-14.2.rel1-mingw-w64-x86_64-arm-none-eabi/bin/../lib/gcc/arm-none-eabi/14.2.1/thumb/v8-m.main+fp/hard\libc_nano.a(libc_a-malloc.o)
 .data          0x00000000        0x0 C:/Users/Admin/.mcuxpressotools/arm-gnu-toolchain-14.2.rel1-mingw-w64-x86_64-arm-none-eabi/bin/../lib/gcc/arm-none-eabi/14.2.1/thumb/v8-m.main+fp/hard\libc_nano.a(libc_a-malloc.o)
 .bss           0x00000000        0x0 C:/Users/Admin/.mcuxpressotools/arm-gnu-toolchain-14.2.rel1-mingw-w64-x86_64-arm-none-eabi/bin/../lib/gcc/arm-none-eabi/14.2.1/thumb/v8-m.main+fp/hard\libc_nano.a(libc_a-malloc.o)
 .text.malloc   0x00000000       0x10 C:/Users/Admin/.mcuxpressotools/arm-gnu-toolchain-14.2.rel1-mingw-w64-x86_64-arm-none-eabi/bin/../lib/gcc/arm-none-eabi/14.2.1/thumb/v8-m.main+fp/hard\libc_nano.a(libc_a-malloc.o)
 .text.free     0x00000000       0x10 C:/Users/Admin/.mcuxpressotools/arm-gnu-toolchain-14.2.rel1-mingw-w64-x86_64-arm-none-eabi/bin/../lib/gcc/arm-none-eabi/14.2.1/thumb/v8-m.main+fp/hard\libc_nano.a(libc_a-malloc.o)
 .debug_frame   0x00000000       0x30 C:/Users/Admin/.mcuxpressotools/arm-gnu-toolchain-14.2.rel1-mingw-w64-x86_64-arm-none-eabi/bin/../lib/gcc/arm-none-eabi/14.2.1/thumb/v8-m.main+fp/hard\libc_nano.a(libc_a-malloc.o)
 .ARM.attributes
                0x00000000       0x38 C:/Users/Admin/.mcuxpressotools/arm-gnu-toolchain-14.2.rel1-mingw-w64-x86_64-arm-none-eabi/bin/../lib/gcc/arm-none-eabi/14.2.1/thumb/v8-m.main+fp/hard\libc_nano.a(libc_a-malloc.o)
 .text          0x00000000        0x0 C:/Users/Admin/.mcuxpressotools/arm-gnu-toolchain-14.2.rel1-mingw-w64-x86_64-arm-none-eabi/bin/../lib/gcc/arm-none-eabi/14.2.1/thumb/v8-m.main+fp/hard\libc_nano.a(libc_a-mallocr.o)
 .data          0x00000000        0x0 C:/Users/Admin/.mcuxpressotools/arm-gnu-toolchain-14.2.rel1-mingw-w64-x86_64-arm-none-eabi/bin/../lib/gcc/arm-none-eabi/14.2.1/thumb/v8-m.main+fp/hard\libc_nano.a(libc_a-mallocr.o)
 .bss           0x00000000        0x0 C:/Users/Admin/.mcuxpressotools/arm-gnu-toolchain-14.2.rel1-mingw-w64-x86_64-arm-none-eabi/bin/../lib/gcc/arm-none-eabi/14.2.1/thumb/v8-m.main+fp/hard\libc_nano.a(libc_a-mallocr.o)
 .text.sbrk_aligned
                0x00000000       0x44 C:/Users/Admin/.mcuxpressotools/arm-gnu-toolchain-14.2.rel1-mingw-w64-x86_64-arm-none-eabi/bin/../lib/gcc/arm-none-eabi/14.2.1/thumb/v8-m.main+fp/hard\libc_nano.a(libc_a-mallocr.o)
 .text._malloc_r
                0x00000000      0x100 C:/Users/Admin/.mcuxpressotools/arm-gnu-toolchain-14.2.rel1-mingw-w64-x86_64-arm-none-eabi/bin/../lib/gcc/arm-none-eabi/14.2.1/thumb/v8-m.main+fp/hard\libc_nano.a(libc_a-mallocr.o)
 .bss.__malloc_sbrk_start
                0x00000000        0x4 C:/Users/Admin/.mcuxpressotools/arm-gnu-toolchain-14.2.rel1-mingw-w64-x86_64-arm-none-eabi/bin/../lib/gcc/arm-none-eabi/14.2.1/thumb/v8-m.main+fp/hard\libc_nano.a(libc_a-mallocr.o)
 .bss.__malloc_free_list
                0x00000000        0x4 C:/Users/Admin/.mcuxpressotools/arm-gnu-toolchain-14.2.rel1-mingw-w64-x86_64-arm-none-eabi/bin/../lib/gcc/arm-none-eabi/14.2.1/thumb/v8-m.main+fp/hard\libc_nano.a(libc_a-mallocr.o)
 .debug_frame   0x00000000       0x50 C:/Users/Admin/.mcuxpressotools/arm-gnu-toolchain-14.2.rel1-mingw-w64-x86_64-arm-none-eabi/bin/../lib/gcc/arm-none-eabi/14.2.1/thumb/v8-m.main+fp/hard\libc_nano.a(libc_a-mallocr.o)
 .ARM.attributes
                0x00000000       0x38 C:/Users/Admin/.mcuxpressotools/arm-gnu-toolchain-14.2.rel1-mingw-w64-x86_64-arm-none-eabi/bin/../lib/gcc/arm-none-eabi/14.2.1/thumb/v8-m.main+fp/hard\libc_nano.a(libc_a-mallocr.o)
 .text          0x00000000        0x0 C:/Users/Admin/.mcuxpressotools/arm-gnu-toolchain-14.2.rel1-mingw-w64-x86_64-arm-none-eabi/bin/../lib/gcc/arm-none-eabi/14.2.1/thumb/v8-m.main+fp/hard\libc_nano.a(libc_a-mlock.o)
 .data          0x00000000        0x0 C:/Users/Admin/.mcuxpressotools/arm-gnu-toolchain-14.2.rel1-mingw-w64-x86_64-arm-none-eabi/bin/../lib/gcc/arm-none-eabi/14.2.1/thumb/v8-m.main+fp/hard\libc_nano.a(libc_a-mlock.o)
 .bss           0x00000000        0x0 C:/Users/Admin/.mcuxpressotools/arm-gnu-toolchain-14.2.rel1-mingw-w64-x86_64-arm-none-eabi/bin/../lib/gcc/arm-none-eabi/14.2.1/thumb/v8-m.main+fp/hard\libc_nano.a(libc_a-mlock.o)
 .text.__malloc_lock
                0x00000000        0xc C:/Users/Admin/.mcuxpressotools/arm-gnu-toolchain-14.2.rel1-mingw-w64-x86_64-arm-none-eabi/bin/../lib/gcc/arm-none-eabi/14.2.1/thumb/v8-m.main+fp/hard\libc_nano.a(libc_a-mlock.o)
 .text.__malloc_unlock
                0x00000000        0xc C:/Users/Admin/.mcuxpressotools/arm-gnu-toolchain-14.2.rel1-mingw-w64-x86_64-arm-none-eabi/bin/../lib/gcc/arm-none-eabi/14.2.1/thumb/v8-m.main+fp/hard\libc_nano.a(libc_a-mlock.o)
 .debug_frame   0x00000000       0x30 C:/Users/Admin/.mcuxpressotools/arm-gnu-toolchain-14.2.rel1-mingw-w64-x86_64-arm-none-eabi/bin/../lib/gcc/arm-none-eabi/14.2.1/thumb/v8-m.main+fp/hard\libc_nano.a(libc_a-mlock.o)
 .ARM.attributes
                0x00000000       0x38 C:/Users/Admin/.mcuxpressotools/arm-gnu-toolchain-14.2.rel1-mingw-w64-x86_64-arm-none-eabi/bin/../lib/gcc/arm-none-eabi/14.2.1/thumb/v8-m.main+fp/hard\libc_nano.a(libc_a-mlock.o)
 .text          0x00000000        0x0 C:/Users/Admin/.mcuxpressotools/arm-gnu-toolchain-14.2.rel1-mingw-w64-x86_64-arm-none-eabi/bin/../lib/gcc/arm-none-eabi/14.2.1/thumb/v8-m.main+fp/hard\libc_nano.a(libc_a-strtoul.o)
 .data          0x00000000        0x0 C:/Users/Admin/.mcuxpressotools/arm-gnu-toolchain-14.2.rel1-mingw-w64-x86_64-arm-none-eabi/bin/../lib/gcc/arm-none-eabi/14.2.1/thumb/v8-m.main+fp/hard\libc_nano.a(libc_a-strtoul.o)
 .bss           0x00000000        0x0 C:/Users/Admin/.mcuxpressotools/arm-gnu-toolchain-14.2.rel1-mingw-w64-x86_64-arm-none-eabi/bin/../lib/gcc/arm-none-eabi/14.2.1/thumb/v8-m.main+fp/hard\libc_nano.a(libc_a-strtoul.o)
 .text._strtoul_l.isra.0
                0x00000000       0xdc C:/Users/Admin/.mcuxpressotools/arm-gnu-toolchain-14.2.rel1-mingw-w64-x86_64-arm-none-eabi/bin/../lib/gcc/arm-none-eabi/14.2.1/thumb/v8-m.main+fp/hard\libc_nano.a(libc_a-strtoul.o)
 .text._strtoul_r
                0x00000000        0x4 C:/Users/Admin/.mcuxpressotools/arm-gnu-toolchain-14.2.rel1-mingw-w64-x86_64-arm-none-eabi/bin/../lib/gcc/arm-none-eabi/14.2.1/thumb/v8-m.main+fp/hard\libc_nano.a(libc_a-strtoul.o)
 .text.strtoul_l
                0x00000000       0x14 C:/Users/Admin/.mcuxpressotools/arm-gnu-toolchain-14.2.rel1-mingw-w64-x86_64-arm-none-eabi/bin/../lib/gcc/arm-none-eabi/14.2.1/thumb/v8-m.main+fp/hard\libc_nano.a(libc_a-strtoul.o)
 .text.strtoul  0x00000000       0x14 C:/Users/Admin/.mcuxpressotools/arm-gnu-toolchain-14.2.rel1-mingw-w64-x86_64-arm-none-eabi/bin/../lib/gcc/arm-none-eabi/14.2.1/thumb/v8-m.main+fp/hard\libc_nano.a(libc_a-strtoul.o)
 .debug_frame   0x00000000       0x64 C:/Users/Admin/.mcuxpressotools/arm-gnu-toolchain-14.2.rel1-mingw-w64-x86_64-arm-none-eabi/bin/../lib/gcc/arm-none-eabi/14.2.1/thumb/v8-m.main+fp/hard\libc_nano.a(libc_a-strtoul.o)
 .ARM.attributes
                0x00000000       0x38 C:/Users/Admin/.mcuxpressotools/arm-gnu-toolchain-14.2.rel1-mingw-w64-x86_64-arm-none-eabi/bin/../lib/gcc/arm-none-eabi/14.2.1/thumb/v8-m.main+fp/hard\libc_nano.a(libc_a-strtoul.o)
 .text          0x00000000        0x0 C:/Users/Admin/.mcuxpressotools/arm-gnu-toolchain-14.2.rel1-mingw-w64-x86_64-arm-none-eabi/bin/../lib/gcc/arm-none-eabi/14.2.1/thumb/v8-m.main+fp/hard\libc_nano.a(libc_a-ctype_.o)
 .data          0x00000000        0x0 C:/Users/Admin/.mcuxpressotools/arm-gnu-toolchain-14.2.rel1-mingw-w64-x86_64-arm-none-eabi/bin/../lib/gcc/arm-none-eabi/14.2.1/thumb/v8-m.main+fp/hard\libc_nano.a(libc_a-ctype_.o)
 .bss           0x00000000        0x0 C:/Users/Admin/.mcuxpressotools/arm-gnu-toolchain-14.2.rel1-mingw-w64-x86_64-arm-none-eabi/bin/../lib/gcc/arm-none-eabi/14.2.1/thumb/v8-m.main+fp/hard\libc_nano.a(libc_a-ctype_.o)
 .rodata._ctype_
                0x00000000      0x101 C:/Users/Admin/.mcuxpressotools/arm-gnu-toolchain-14.2.rel1-mingw-w64-x86_64-arm-none-eabi/bin/../lib/gcc/arm-none-eabi/14.2.1/thumb/v8-m.main+fp/hard\libc_nano.a(libc_a-ctype_.o)
 .ARM.attributes
                0x00000000       0x38 C:/Users/Admin/.mcuxpressotools/arm-gnu-toolchain-14.2.rel1-mingw-w64-x86_64-arm-none-eabi/bin/../lib/gcc/arm-none-eabi/14.2.1/thumb/v8-m.main+fp/hard\libc_nano.a(libc_a-ctype_.o)
 .text          0x00000000        0x0 C:/Users/Admin/.mcuxpressotools/arm-gnu-toolchain-14.2.rel1-mingw-w64-x86_64-arm-none-eabi/bin/../lib/gcc/arm-none-eabi/14.2.1/thumb/v8-m.main+fp/hard\libc_nano.a(libc_a-findfp.o)
 .data          0x00000000        0x0 C:/Users/Admin/.mcuxpressotools/arm-gnu-toolchain-14.2.rel1-mingw-w64-x86_64-arm-none-eabi/bin/../lib/gcc/arm-none-eabi/14.2.1/thumb/v8-m.main+fp/hard\libc_nano.a(libc_a-findfp.o)
 .bss           0x00000000        0x0 C:/Users/Admin/.mcuxpressotools/arm-gnu-toolchain-14.2.rel1-mingw-w64-x86_64-arm-none-eabi/bin/../lib/gcc/arm-none-eabi/14.2.1/thumb/v8-m.main+fp/hard\libc_nano.a(libc_a-findfp.o)
 .text.std      0x00000000       0x6c C:/Users/Admin/.mcuxpressotools/arm-gnu-toolchain-14.2.rel1-mingw-w64-x86_64-arm-none-eabi/bin/../lib/gcc/arm-none-eabi/14.2.1/thumb/v8-m.main+fp/hard\libc_nano.a(libc_a-findfp.o)
 .text.stdio_exit_handler
                0x00000000       0x18 C:/Users/Admin/.mcuxpressotools/arm-gnu-toolchain-14.2.rel1-mingw-w64-x86_64-arm-none-eabi/bin/../lib/gcc/arm-none-eabi/14.2.1/thumb/v8-m.main+fp/hard\libc_nano.a(libc_a-findfp.o)
 .text.cleanup_stdio
                0x00000000       0x40 C:/Users/Admin/.mcuxpressotools/arm-gnu-toolchain-14.2.rel1-mingw-w64-x86_64-arm-none-eabi/bin/../lib/gcc/arm-none-eabi/14.2.1/thumb/v8-m.main+fp/hard\libc_nano.a(libc_a-findfp.o)
 .text.__fp_lock
                0x00000000       0x18 C:/Users/Admin/.mcuxpressotools/arm-gnu-toolchain-14.2.rel1-mingw-w64-x86_64-arm-none-eabi/bin/../lib/gcc/arm-none-eabi/14.2.1/thumb/v8-m.main+fp/hard\libc_nano.a(libc_a-findfp.o)
 .text.__fp_unlock
                0x00000000       0x18 C:/Users/Admin/.mcuxpressotools/arm-gnu-toolchain-14.2.rel1-mingw-w64-x86_64-arm-none-eabi/bin/../lib/gcc/arm-none-eabi/14.2.1/thumb/v8-m.main+fp/hard\libc_nano.a(libc_a-findfp.o)
 .text.global_stdio_init.part.0
                0x00000000       0x40 C:/Users/Admin/.mcuxpressotools/arm-gnu-toolchain-14.2.rel1-mingw-w64-x86_64-arm-none-eabi/bin/../lib/gcc/arm-none-eabi/14.2.1/thumb/v8-m.main+fp/hard\libc_nano.a(libc_a-findfp.o)
 .text.__sfp_lock_acquire
                0x00000000        0xc C:/Users/Admin/.mcuxpressotools/arm-gnu-toolchain-14.2.rel1-mingw-w64-x86_64-arm-none-eabi/bin/../lib/gcc/arm-none-eabi/14.2.1/thumb/v8-m.main+fp/hard\libc_nano.a(libc_a-findfp.o)
 .text.__sfp_lock_release
                0x00000000        0xc C:/Users/Admin/.mcuxpressotools/arm-gnu-toolchain-14.2.rel1-mingw-w64-x86_64-arm-none-eabi/bin/../lib/gcc/arm-none-eabi/14.2.1/thumb/v8-m.main+fp/hard\libc_nano.a(libc_a-findfp.o)
 .text.__sfp    0x00000000       0xa8 C:/Users/Admin/.mcuxpressotools/arm-gnu-toolchain-14.2.rel1-mingw-w64-x86_64-arm-none-eabi/bin/../lib/gcc/arm-none-eabi/14.2.1/thumb/v8-m.main+fp/hard\libc_nano.a(libc_a-findfp.o)
 .text.__sinit  0x00000000       0x30 C:/Users/Admin/.mcuxpressotools/arm-gnu-toolchain-14.2.rel1-mingw-w64-x86_64-arm-none-eabi/bin/../lib/gcc/arm-none-eabi/14.2.1/thumb/v8-m.main+fp/hard\libc_nano.a(libc_a-findfp.o)
 .text.__fp_lock_all
                0x00000000       0x1c C:/Users/Admin/.mcuxpressotools/arm-gnu-toolchain-14.2.rel1-mingw-w64-x86_64-arm-none-eabi/bin/../lib/gcc/arm-none-eabi/14.2.1/thumb/v8-m.main+fp/hard\libc_nano.a(libc_a-findfp.o)
 .text.__fp_unlock_all
                0x00000000       0x1c C:/Users/Admin/.mcuxpressotools/arm-gnu-toolchain-14.2.rel1-mingw-w64-x86_64-arm-none-eabi/bin/../lib/gcc/arm-none-eabi/14.2.1/thumb/v8-m.main+fp/hard\libc_nano.a(libc_a-findfp.o)
 .data.__sglue  0x00000000        0xc C:/Users/Admin/.mcuxpressotools/arm-gnu-toolchain-14.2.rel1-mingw-w64-x86_64-arm-none-eabi/bin/../lib/gcc/arm-none-eabi/14.2.1/thumb/v8-m.main+fp/hard\libc_nano.a(libc_a-findfp.o)
 .bss.__sf      0x00000000      0x138 C:/Users/Admin/.mcuxpressotools/arm-gnu-toolchain-14.2.rel1-mingw-w64-x86_64-arm-none-eabi/bin/../lib/gcc/arm-none-eabi/14.2.1/thumb/v8-m.main+fp/hard\libc_nano.a(libc_a-findfp.o)
 .text          0x00000000        0x0 C:/Users/Admin/.mcuxpressotools/arm-gnu-toolchain-14.2.rel1-mingw-w64-x86_64-arm-none-eabi/bin/../lib/gcc/arm-none-eabi/14.2.1/thumb/v8-m.main+fp/hard\libc_nano.a(libc_a-fwalk.o)
 .data          0x00000000        0x0 C:/Users/Admin/.mcuxpressotools/arm-gnu-toolchain-14.2.rel1-mingw-w64-x86_64-arm-none-eabi/bin/../lib/gcc/arm-none-eabi/14.2.1/thumb/v8-m.main+fp/hard\libc_nano.a(libc_a-fwalk.o)
 .bss           0x00000000        0x0 C:/Users/Admin/.mcuxpressotools/arm-gnu-toolchain-14.2.rel1-mingw-w64-x86_64-arm-none-eabi/bin/../lib/gcc/arm-none-eabi/14.2.1/thumb/v8-m.main+fp/hard\libc_nano.a(libc_a-fwalk.o)
 .text._fwalk_sglue
                0x00000000       0x3c C:/Users/Admin/.mcuxpressotools/arm-gnu-toolchain-14.2.rel1-mingw-w64-x86_64-arm-none-eabi/bin/../lib/gcc/arm-none-eabi/14.2.1/thumb/v8-m.main+fp/hard\libc_nano.a(libc_a-fwalk.o)
 .debug_frame   0x00000000       0x34 C:/Users/Admin/.mcuxpressotools/arm-gnu-toolchain-14.2.rel1-mingw-w64-x86_64-arm-none-eabi/bin/../lib/gcc/arm-none-eabi/14.2.1/thumb/v8-m.main+fp/hard\libc_nano.a(libc_a-fwalk.o)
 .ARM.attributes
                0x00000000       0x38 C:/Users/Admin/.mcuxpressotools/arm-gnu-toolchain-14.2.rel1-mingw-w64-x86_64-arm-none-eabi/bin/../lib/gcc/arm-none-eabi/14.2.1/thumb/v8-m.main+fp/hard\libc_nano.a(libc_a-fwalk.o)
 .text          0x00000000        0x0 C:/Users/Admin/.mcuxpressotools/arm-gnu-toolchain-14.2.rel1-mingw-w64-x86_64-arm-none-eabi/bin/../lib/gcc/arm-none-eabi/14.2.1/thumb/v8-m.main+fp/hard\libc_nano.a(libc_a-stdio.o)
 .data          0x00000000        0x0 C:/Users/Admin/.mcuxpressotools/arm-gnu-toolchain-14.2.rel1-mingw-w64-x86_64-arm-none-eabi/bin/../lib/gcc/arm-none-eabi/14.2.1/thumb/v8-m.main+fp/hard\libc_nano.a(libc_a-stdio.o)
 .bss           0x00000000        0x0 C:/Users/Admin/.mcuxpressotools/arm-gnu-toolchain-14.2.rel1-mingw-w64-x86_64-arm-none-eabi/bin/../lib/gcc/arm-none-eabi/14.2.1/thumb/v8-m.main+fp/hard\libc_nano.a(libc_a-stdio.o)
 .text.__sread  0x00000000       0x22 C:/Users/Admin/.mcuxpressotools/arm-gnu-toolchain-14.2.rel1-mingw-w64-x86_64-arm-none-eabi/bin/../lib/gcc/arm-none-eabi/14.2.1/thumb/v8-m.main+fp/hard\libc_nano.a(libc_a-stdio.o)
 .text.__seofread
                0x00000000        0x4 C:/Users/Admin/.mcuxpressotools/arm-gnu-toolchain-14.2.rel1-mingw-w64-x86_64-arm-none-eabi/bin/../lib/gcc/arm-none-eabi/14.2.1/thumb/v8-m.main+fp/hard\libc_nano.a(libc_a-stdio.o)
 .text.__swrite
                0x00000000       0x38 C:/Users/Admin/.mcuxpressotools/arm-gnu-toolchain-14.2.rel1-mingw-w64-x86_64-arm-none-eabi/bin/../lib/gcc/arm-none-eabi/14.2.1/thumb/v8-m.main+fp/hard\libc_nano.a(libc_a-stdio.o)
 .text.__sseek  0x00000000       0x26 C:/Users/Admin/.mcuxpressotools/arm-gnu-toolchain-14.2.rel1-mingw-w64-x86_64-arm-none-eabi/bin/../lib/gcc/arm-none-eabi/14.2.1/thumb/v8-m.main+fp/hard\libc_nano.a(libc_a-stdio.o)
 .text.__sclose
                0x00000000        0x8 C:/Users/Admin/.mcuxpressotools/arm-gnu-toolchain-14.2.rel1-mingw-w64-x86_64-arm-none-eabi/bin/../lib/gcc/arm-none-eabi/14.2.1/thumb/v8-m.main+fp/hard\libc_nano.a(libc_a-stdio.o)
 .debug_frame   0x00000000       0x88 C:/Users/Admin/.mcuxpressotools/arm-gnu-toolchain-14.2.rel1-mingw-w64-x86_64-arm-none-eabi/bin/../lib/gcc/arm-none-eabi/14.2.1/thumb/v8-m.main+fp/hard\libc_nano.a(libc_a-stdio.o)
 .ARM.attributes
                0x00000000       0x38 C:/Users/Admin/.mcuxpressotools/arm-gnu-toolchain-14.2.rel1-mingw-w64-x86_64-arm-none-eabi/bin/../lib/gcc/arm-none-eabi/14.2.1/thumb/v8-m.main+fp/hard\libc_nano.a(libc_a-stdio.o)
 .text          0x00000000        0x0 C:/Users/Admin/.mcuxpressotools/arm-gnu-toolchain-14.2.rel1-mingw-w64-x86_64-arm-none-eabi/bin/../lib/gcc/arm-none-eabi/14.2.1/thumb/v8-m.main+fp/hard\libc_nano.a(libc_a-memset.o)
 .data          0x00000000        0x0 C:/Users/Admin/.mcuxpressotools/arm-gnu-toolchain-14.2.rel1-mingw-w64-x86_64-arm-none-eabi/bin/../lib/gcc/arm-none-eabi/14.2.1/thumb/v8-m.main+fp/hard\libc_nano.a(libc_a-memset.o)
 .bss           0x00000000        0x0 C:/Users/Admin/.mcuxpressotools/arm-gnu-toolchain-14.2.rel1-mingw-w64-x86_64-arm-none-eabi/bin/../lib/gcc/arm-none-eabi/14.2.1/thumb/v8-m.main+fp/hard\libc_nano.a(libc_a-memset.o)
 .text          0x00000000        0x0 C:/Users/Admin/.mcuxpressotools/arm-gnu-toolchain-14.2.rel1-mingw-w64-x86_64-arm-none-eabi/bin/../lib/gcc/arm-none-eabi/14.2.1/thumb/v8-m.main+fp/hard\libc_nano.a(libc_a-closer.o)
 .data          0x00000000        0x0 C:/Users/Admin/.mcuxpressotools/arm-gnu-toolchain-14.2.rel1-mingw-w64-x86_64-arm-none-eabi/bin/../lib/gcc/arm-none-eabi/14.2.1/thumb/v8-m.main+fp/hard\libc_nano.a(libc_a-closer.o)
 .bss           0x00000000        0x0 C:/Users/Admin/.mcuxpressotools/arm-gnu-toolchain-14.2.rel1-mingw-w64-x86_64-arm-none-eabi/bin/../lib/gcc/arm-none-eabi/14.2.1/thumb/v8-m.main+fp/hard\libc_nano.a(libc_a-closer.o)
 .text._close_r
                0x00000000       0x20 C:/Users/Admin/.mcuxpressotools/arm-gnu-toolchain-14.2.rel1-mingw-w64-x86_64-arm-none-eabi/bin/../lib/gcc/arm-none-eabi/14.2.1/thumb/v8-m.main+fp/hard\libc_nano.a(libc_a-closer.o)
 .debug_frame   0x00000000       0x2c C:/Users/Admin/.mcuxpressotools/arm-gnu-toolchain-14.2.rel1-mingw-w64-x86_64-arm-none-eabi/bin/../lib/gcc/arm-none-eabi/14.2.1/thumb/v8-m.main+fp/hard\libc_nano.a(libc_a-closer.o)
 .ARM.attributes
                0x00000000       0x38 C:/Users/Admin/.mcuxpressotools/arm-gnu-toolchain-14.2.rel1-mingw-w64-x86_64-arm-none-eabi/bin/../lib/gcc/arm-none-eabi/14.2.1/thumb/v8-m.main+fp/hard\libc_nano.a(libc_a-closer.o)
 .text          0x00000000        0x0 C:/Users/Admin/.mcuxpressotools/arm-gnu-toolchain-14.2.rel1-mingw-w64-x86_64-arm-none-eabi/bin/../lib/gcc/arm-none-eabi/14.2.1/thumb/v8-m.main+fp/hard\libc_nano.a(libc_a-reent.o)
 .data          0x00000000        0x0 C:/Users/Admin/.mcuxpressotools/arm-gnu-toolchain-14.2.rel1-mingw-w64-x86_64-arm-none-eabi/bin/../lib/gcc/arm-none-eabi/14.2.1/thumb/v8-m.main+fp/hard\libc_nano.a(libc_a-reent.o)
 .bss           0x00000000        0x0 C:/Users/Admin/.mcuxpressotools/arm-gnu-toolchain-14.2.rel1-mingw-w64-x86_64-arm-none-eabi/bin/../lib/gcc/arm-none-eabi/14.2.1/thumb/v8-m.main+fp/hard\libc_nano.a(libc_a-reent.o)
 .text._reclaim_reent
                0x00000000       0xbc C:/Users/Admin/.mcuxpressotools/arm-gnu-toolchain-14.2.rel1-mingw-w64-x86_64-arm-none-eabi/bin/../lib/gcc/arm-none-eabi/14.2.1/thumb/v8-m.main+fp/hard\libc_nano.a(libc_a-reent.o)
 .bss.errno     0x00000000        0x4 C:/Users/Admin/.mcuxpressotools/arm-gnu-toolchain-14.2.rel1-mingw-w64-x86_64-arm-none-eabi/bin/../lib/gcc/arm-none-eabi/14.2.1/thumb/v8-m.main+fp/hard\libc_nano.a(libc_a-reent.o)
 .debug_frame   0x00000000       0x38 C:/Users/Admin/.mcuxpressotools/arm-gnu-toolchain-14.2.rel1-mingw-w64-x86_64-arm-none-eabi/bin/../lib/gcc/arm-none-eabi/14.2.1/thumb/v8-m.main+fp/hard\libc_nano.a(libc_a-reent.o)
 .ARM.attributes
                0x00000000       0x38 C:/Users/Admin/.mcuxpressotools/arm-gnu-toolchain-14.2.rel1-mingw-w64-x86_64-arm-none-eabi/bin/../lib/gcc/arm-none-eabi/14.2.1/thumb/v8-m.main+fp/hard\libc_nano.a(libc_a-reent.o)
 .text          0x00000000        0x0 C:/Users/Admin/.mcuxpressotools/arm-gnu-toolchain-14.2.rel1-mingw-w64-x86_64-arm-none-eabi/bin/../lib/gcc/arm-none-eabi/14.2.1/thumb/v8-m.main+fp/hard\libc_nano.a(libc_a-impure.o)
 .data          0x00000000        0x0 C:/Users/Admin/.mcuxpressotools/arm-gnu-toolchain-14.2.rel1-mingw-w64-x86_64-arm-none-eabi/bin/../lib/gcc/arm-none-eabi/14.2.1/thumb/v8-m.main+fp/hard\libc_nano.a(libc_a-impure.o)
 .bss           0x00000000        0x0 C:/Users/Admin/.mcuxpressotools/arm-gnu-toolchain-14.2.rel1-mingw-w64-x86_64-arm-none-eabi/bin/../lib/gcc/arm-none-eabi/14.2.1/thumb/v8-m.main+fp/hard\libc_nano.a(libc_a-impure.o)
 .data._impure_ptr
                0x00000000        0x4 C:/Users/Admin/.mcuxpressotools/arm-gnu-toolchain-14.2.rel1-mingw-w64-x86_64-arm-none-eabi/bin/../lib/gcc/arm-none-eabi/14.2.1/thumb/v8-m.main+fp/hard\libc_nano.a(libc_a-impure.o)
 .data._impure_data
                0x00000000       0x4c C:/Users/Admin/.mcuxpressotools/arm-gnu-toolchain-14.2.rel1-mingw-w64-x86_64-arm-none-eabi/bin/../lib/gcc/arm-none-eabi/14.2.1/thumb/v8-m.main+fp/hard\libc_nano.a(libc_a-impure.o)
 .ARM.attributes
                0x00000000       0x38 C:/Users/Admin/.mcuxpressotools/arm-gnu-toolchain-14.2.rel1-mingw-w64-x86_64-arm-none-eabi/bin/../lib/gcc/arm-none-eabi/14.2.1/thumb/v8-m.main+fp/hard\libc_nano.a(libc_a-impure.o)
 .text          0x00000000        0x0 C:/Users/Admin/.mcuxpressotools/arm-gnu-toolchain-14.2.rel1-mingw-w64-x86_64-arm-none-eabi/bin/../lib/gcc/arm-none-eabi/14.2.1/thumb/v8-m.main+fp/hard\libc_nano.a(libc_a-lseekr.o)
 .data          0x00000000        0x0 C:/Users/Admin/.mcuxpressotools/arm-gnu-toolchain-14.2.rel1-mingw-w64-x86_64-arm-none-eabi/bin/../lib/gcc/arm-none-eabi/14.2.1/thumb/v8-m.main+fp/hard\libc_nano.a(libc_a-lseekr.o)
 .bss           0x00000000        0x0 C:/Users/Admin/.mcuxpressotools/arm-gnu-toolchain-14.2.rel1-mingw-w64-x86_64-arm-none-eabi/bin/../lib/gcc/arm-none-eabi/14.2.1/thumb/v8-m.main+fp/hard\libc_nano.a(libc_a-lseekr.o)
 .text._lseek_r
                0x00000000       0x24 C:/Users/Admin/.mcuxpressotools/arm-gnu-toolchain-14.2.rel1-mingw-w64-x86_64-arm-none-eabi/bin/../lib/gcc/arm-none-eabi/14.2.1/thumb/v8-m.main+fp/hard\libc_nano.a(libc_a-lseekr.o)
 .debug_frame   0x00000000       0x2c C:/Users/Admin/.mcuxpressotools/arm-gnu-toolchain-14.2.rel1-mingw-w64-x86_64-arm-none-eabi/bin/../lib/gcc/arm-none-eabi/14.2.1/thumb/v8-m.main+fp/hard\libc_nano.a(libc_a-lseekr.o)
 .ARM.attributes
                0x00000000       0x38 C:/Users/Admin/.mcuxpressotools/arm-gnu-toolchain-14.2.rel1-mingw-w64-x86_64-arm-none-eabi/bin/../lib/gcc/arm-none-eabi/14.2.1/thumb/v8-m.main+fp/hard\libc_nano.a(libc_a-lseekr.o)
 .text          0x00000000        0x0 C:/Users/Admin/.mcuxpressotools/arm-gnu-toolchain-14.2.rel1-mingw-w64-x86_64-arm-none-eabi/bin/../lib/gcc/arm-none-eabi/14.2.1/thumb/v8-m.main+fp/hard\libc_nano.a(libc_a-readr.o)
 .data          0x00000000        0x0 C:/Users/Admin/.mcuxpressotools/arm-gnu-toolchain-14.2.rel1-mingw-w64-x86_64-arm-none-eabi/bin/../lib/gcc/arm-none-eabi/14.2.1/thumb/v8-m.main+fp/hard\libc_nano.a(libc_a-readr.o)
 .bss           0x00000000        0x0 C:/Users/Admin/.mcuxpressotools/arm-gnu-toolchain-14.2.rel1-mingw-w64-x86_64-arm-none-eabi/bin/../lib/gcc/arm-none-eabi/14.2.1/thumb/v8-m.main+fp/hard\libc_nano.a(libc_a-readr.o)
 .text._read_r  0x00000000       0x24 C:/Users/Admin/.mcuxpressotools/arm-gnu-toolchain-14.2.rel1-mingw-w64-x86_64-arm-none-eabi/bin/../lib/gcc/arm-none-eabi/14.2.1/thumb/v8-m.main+fp/hard\libc_nano.a(libc_a-readr.o)
 .debug_frame   0x00000000       0x2c C:/Users/Admin/.mcuxpressotools/arm-gnu-toolchain-14.2.rel1-mingw-w64-x86_64-arm-none-eabi/bin/../lib/gcc/arm-none-eabi/14.2.1/thumb/v8-m.main+fp/hard\libc_nano.a(libc_a-readr.o)
 .ARM.attributes
                0x00000000       0x38 C:/Users/Admin/.mcuxpressotools/arm-gnu-toolchain-14.2.rel1-mingw-w64-x86_64-arm-none-eabi/bin/../lib/gcc/arm-none-eabi/14.2.1/thumb/v8-m.main+fp/hard\libc_nano.a(libc_a-readr.o)
 .text          0x00000000        0x0 C:/Users/Admin/.mcuxpressotools/arm-gnu-toolchain-14.2.rel1-mingw-w64-x86_64-arm-none-eabi/bin/../lib/gcc/arm-none-eabi/14.2.1/thumb/v8-m.main+fp/hard\libc_nano.a(libc_a-sbrkr.o)
 .data          0x00000000        0x0 C:/Users/Admin/.mcuxpressotools/arm-gnu-toolchain-14.2.rel1-mingw-w64-x86_64-arm-none-eabi/bin/../lib/gcc/arm-none-eabi/14.2.1/thumb/v8-m.main+fp/hard\libc_nano.a(libc_a-sbrkr.o)
 .bss           0x00000000        0x0 C:/Users/Admin/.mcuxpressotools/arm-gnu-toolchain-14.2.rel1-mingw-w64-x86_64-arm-none-eabi/bin/../lib/gcc/arm-none-eabi/14.2.1/thumb/v8-m.main+fp/hard\libc_nano.a(libc_a-sbrkr.o)
 .text._sbrk_r  0x00000000       0x20 C:/Users/Admin/.mcuxpressotools/arm-gnu-toolchain-14.2.rel1-mingw-w64-x86_64-arm-none-eabi/bin/../lib/gcc/arm-none-eabi/14.2.1/thumb/v8-m.main+fp/hard\libc_nano.a(libc_a-sbrkr.o)
 .debug_frame   0x00000000       0x2c C:/Users/Admin/.mcuxpressotools/arm-gnu-toolchain-14.2.rel1-mingw-w64-x86_64-arm-none-eabi/bin/../lib/gcc/arm-none-eabi/14.2.1/thumb/v8-m.main+fp/hard\libc_nano.a(libc_a-sbrkr.o)
 .ARM.attributes
                0x00000000       0x38 C:/Users/Admin/.mcuxpressotools/arm-gnu-toolchain-14.2.rel1-mingw-w64-x86_64-arm-none-eabi/bin/../lib/gcc/arm-none-eabi/14.2.1/thumb/v8-m.main+fp/hard\libc_nano.a(libc_a-sbrkr.o)
 .text          0x00000000        0x0 C:/Users/Admin/.mcuxpressotools/arm-gnu-toolchain-14.2.rel1-mingw-w64-x86_64-arm-none-eabi/bin/../lib/gcc/arm-none-eabi/14.2.1/thumb/v8-m.main+fp/hard\libc_nano.a(libc_a-writer.o)
 .data          0x00000000        0x0 C:/Users/Admin/.mcuxpressotools/arm-gnu-toolchain-14.2.rel1-mingw-w64-x86_64-arm-none-eabi/bin/../lib/gcc/arm-none-eabi/14.2.1/thumb/v8-m.main+fp/hard\libc_nano.a(libc_a-writer.o)
 .bss           0x00000000        0x0 C:/Users/Admin/.mcuxpressotools/arm-gnu-toolchain-14.2.rel1-mingw-w64-x86_64-arm-none-eabi/bin/../lib/gcc/arm-none-eabi/14.2.1/thumb/v8-m.main+fp/hard\libc_nano.a(libc_a-writer.o)
 .text._write_r
                0x00000000       0x24 C:/Users/Admin/.mcuxpressotools/arm-gnu-toolchain-14.2.rel1-mingw-w64-x86_64-arm-none-eabi/bin/../lib/gcc/arm-none-eabi/14.2.1/thumb/v8-m.main+fp/hard\libc_nano.a(libc_a-writer.o)
 .debug_frame   0x00000000       0x2c C:/Users/Admin/.mcuxpressotools/arm-gnu-toolchain-14.2.rel1-mingw-w64-x86_64-arm-none-eabi/bin/../lib/gcc/arm-none-eabi/14.2.1/thumb/v8-m.main+fp/hard\libc_nano.a(libc_a-writer.o)
 .ARM.attributes
                0x00000000       0x38 C:/Users/Admin/.mcuxpressotools/arm-gnu-toolchain-14.2.rel1-mingw-w64-x86_64-arm-none-eabi/bin/../lib/gcc/arm-none-eabi/14.2.1/thumb/v8-m.main+fp/hard\libc_nano.a(libc_a-writer.o)
 .text          0x00000000        0x0 C:/Users/Admin/.mcuxpressotools/arm-gnu-toolchain-14.2.rel1-mingw-w64-x86_64-arm-none-eabi/bin/../lib/gcc/arm-none-eabi/14.2.1/thumb/v8-m.main+fp/hard\libc_nano.a(libc_a-errno.o)
 .data          0x00000000        0x0 C:/Users/Admin/.mcuxpressotools/arm-gnu-toolchain-14.2.rel1-mingw-w64-x86_64-arm-none-eabi/bin/../lib/gcc/arm-none-eabi/14.2.1/thumb/v8-m.main+fp/hard\libc_nano.a(libc_a-errno.o)
 .bss           0x00000000        0x0 C:/Users/Admin/.mcuxpressotools/arm-gnu-toolchain-14.2.rel1-mingw-w64-x86_64-arm-none-eabi/bin/../lib/gcc/arm-none-eabi/14.2.1/thumb/v8-m.main+fp/hard\libc_nano.a(libc_a-errno.o)
 .text.__errno  0x00000000        0xc C:/Users/Admin/.mcuxpressotools/arm-gnu-toolchain-14.2.rel1-mingw-w64-x86_64-arm-none-eabi/bin/../lib/gcc/arm-none-eabi/14.2.1/thumb/v8-m.main+fp/hard\libc_nano.a(libc_a-errno.o)
 .debug_frame   0x00000000       0x20 C:/Users/Admin/.mcuxpressotools/arm-gnu-toolchain-14.2.rel1-mingw-w64-x86_64-arm-none-eabi/bin/../lib/gcc/arm-none-eabi/14.2.1/thumb/v8-m.main+fp/hard\libc_nano.a(libc_a-errno.o)
 .ARM.attributes
                0x00000000       0x38 C:/Users/Admin/.mcuxpressotools/arm-gnu-toolchain-14.2.rel1-mingw-w64-x86_64-arm-none-eabi/bin/../lib/gcc/arm-none-eabi/14.2.1/thumb/v8-m.main+fp/hard\libc_nano.a(libc_a-errno.o)
 .text          0x00000000        0x0 C:/Users/Admin/.mcuxpressotools/arm-gnu-toolchain-14.2.rel1-mingw-w64-x86_64-arm-none-eabi/bin/../lib/gcc/arm-none-eabi/14.2.1/thumb/v8-m.main+fp/hard\libc_nano.a(libc_a-init.o)
 .data          0x00000000        0x0 C:/Users/Admin/.mcuxpressotools/arm-gnu-toolchain-14.2.rel1-mingw-w64-x86_64-arm-none-eabi/bin/../lib/gcc/arm-none-eabi/14.2.1/thumb/v8-m.main+fp/hard\libc_nano.a(libc_a-init.o)
 .bss           0x00000000        0x0 C:/Users/Admin/.mcuxpressotools/arm-gnu-toolchain-14.2.rel1-mingw-w64-x86_64-arm-none-eabi/bin/../lib/gcc/arm-none-eabi/14.2.1/thumb/v8-m.main+fp/hard\libc_nano.a(libc_a-init.o)
 .text          0x00000000        0x0 C:/Users/Admin/.mcuxpressotools/arm-gnu-toolchain-14.2.rel1-mingw-w64-x86_64-arm-none-eabi/bin/../lib/gcc/arm-none-eabi/14.2.1/thumb/v8-m.main+fp/hard\libc_nano.a(libc_a-lock.o)
 .data          0x00000000        0x0 C:/Users/Admin/.mcuxpressotools/arm-gnu-toolchain-14.2.rel1-mingw-w64-x86_64-arm-none-eabi/bin/../lib/gcc/arm-none-eabi/14.2.1/thumb/v8-m.main+fp/hard\libc_nano.a(libc_a-lock.o)
 .bss           0x00000000        0x0 C:/Users/Admin/.mcuxpressotools/arm-gnu-toolchain-14.2.rel1-mingw-w64-x86_64-arm-none-eabi/bin/../lib/gcc/arm-none-eabi/14.2.1/thumb/v8-m.main+fp/hard\libc_nano.a(libc_a-lock.o)
 .text.__retarget_lock_init
                0x00000000        0x2 C:/Users/Admin/.mcuxpressotools/arm-gnu-toolchain-14.2.rel1-mingw-w64-x86_64-arm-none-eabi/bin/../lib/gcc/arm-none-eabi/14.2.1/thumb/v8-m.main+fp/hard\libc_nano.a(libc_a-lock.o)
 .text.__retarget_lock_init_recursive
                0x00000000        0x2 C:/Users/Admin/.mcuxpressotools/arm-gnu-toolchain-14.2.rel1-mingw-w64-x86_64-arm-none-eabi/bin/../lib/gcc/arm-none-eabi/14.2.1/thumb/v8-m.main+fp/hard\libc_nano.a(libc_a-lock.o)
 .text.__retarget_lock_close
                0x00000000        0x2 C:/Users/Admin/.mcuxpressotools/arm-gnu-toolchain-14.2.rel1-mingw-w64-x86_64-arm-none-eabi/bin/../lib/gcc/arm-none-eabi/14.2.1/thumb/v8-m.main+fp/hard\libc_nano.a(libc_a-lock.o)
 .text.__retarget_lock_close_recursive
                0x00000000        0x2 C:/Users/Admin/.mcuxpressotools/arm-gnu-toolchain-14.2.rel1-mingw-w64-x86_64-arm-none-eabi/bin/../lib/gcc/arm-none-eabi/14.2.1/thumb/v8-m.main+fp/hard\libc_nano.a(libc_a-lock.o)
 .text.__retarget_lock_acquire
                0x00000000        0x2 C:/Users/Admin/.mcuxpressotools/arm-gnu-toolchain-14.2.rel1-mingw-w64-x86_64-arm-none-eabi/bin/../lib/gcc/arm-none-eabi/14.2.1/thumb/v8-m.main+fp/hard\libc_nano.a(libc_a-lock.o)
 .text.__retarget_lock_acquire_recursive
                0x00000000        0x2 C:/Users/Admin/.mcuxpressotools/arm-gnu-toolchain-14.2.rel1-mingw-w64-x86_64-arm-none-eabi/bin/../lib/gcc/arm-none-eabi/14.2.1/thumb/v8-m.main+fp/hard\libc_nano.a(libc_a-lock.o)
 .text.__retarget_lock_try_acquire
                0x00000000        0x4 C:/Users/Admin/.mcuxpressotools/arm-gnu-toolchain-14.2.rel1-mingw-w64-x86_64-arm-none-eabi/bin/../lib/gcc/arm-none-eabi/14.2.1/thumb/v8-m.main+fp/hard\libc_nano.a(libc_a-lock.o)
 .text.__retarget_lock_try_acquire_recursive
                0x00000000        0x4 C:/Users/Admin/.mcuxpressotools/arm-gnu-toolchain-14.2.rel1-mingw-w64-x86_64-arm-none-eabi/bin/../lib/gcc/arm-none-eabi/14.2.1/thumb/v8-m.main+fp/hard\libc_nano.a(libc_a-lock.o)
 .text.__retarget_lock_release
                0x00000000        0x2 C:/Users/Admin/.mcuxpressotools/arm-gnu-toolchain-14.2.rel1-mingw-w64-x86_64-arm-none-eabi/bin/../lib/gcc/arm-none-eabi/14.2.1/thumb/v8-m.main+fp/hard\libc_nano.a(libc_a-lock.o)
 .text.__retarget_lock_release_recursive
                0x00000000        0x2 C:/Users/Admin/.mcuxpressotools/arm-gnu-toolchain-14.2.rel1-mingw-w64-x86_64-arm-none-eabi/bin/../lib/gcc/arm-none-eabi/14.2.1/thumb/v8-m.main+fp/hard\libc_nano.a(libc_a-lock.o)
 .bss.__lock___arc4random_mutex
                0x00000000        0x1 C:/Users/Admin/.mcuxpressotools/arm-gnu-toolchain-14.2.rel1-mingw-w64-x86_64-arm-none-eabi/bin/../lib/gcc/arm-none-eabi/14.2.1/thumb/v8-m.main+fp/hard\libc_nano.a(libc_a-lock.o)
 .bss.__lock___dd_hash_mutex
                0x00000000        0x1 C:/Users/Admin/.mcuxpressotools/arm-gnu-toolchain-14.2.rel1-mingw-w64-x86_64-arm-none-eabi/bin/../lib/gcc/arm-none-eabi/14.2.1/thumb/v8-m.main+fp/hard\libc_nano.a(libc_a-lock.o)
 .bss.__lock___tz_mutex
                0x00000000        0x1 C:/Users/Admin/.mcuxpressotools/arm-gnu-toolchain-14.2.rel1-mingw-w64-x86_64-arm-none-eabi/bin/../lib/gcc/arm-none-eabi/14.2.1/thumb/v8-m.main+fp/hard\libc_nano.a(libc_a-lock.o)
 .bss.__lock___env_recursive_mutex
                0x00000000        0x1 C:/Users/Admin/.mcuxpressotools/arm-gnu-toolchain-14.2.rel1-mingw-w64-x86_64-arm-none-eabi/bin/../lib/gcc/arm-none-eabi/14.2.1/thumb/v8-m.main+fp/hard\libc_nano.a(libc_a-lock.o)
 .bss.__lock___malloc_recursive_mutex
                0x00000000        0x1 C:/Users/Admin/.mcuxpressotools/arm-gnu-toolchain-14.2.rel1-mingw-w64-x86_64-arm-none-eabi/bin/../lib/gcc/arm-none-eabi/14.2.1/thumb/v8-m.main+fp/hard\libc_nano.a(libc_a-lock.o)
 .bss.__lock___at_quick_exit_mutex
                0x00000000        0x1 C:/Users/Admin/.mcuxpressotools/arm-gnu-toolchain-14.2.rel1-mingw-w64-x86_64-arm-none-eabi/bin/../lib/gcc/arm-none-eabi/14.2.1/thumb/v8-m.main+fp/hard\libc_nano.a(libc_a-lock.o)
 .bss.__lock___atexit_recursive_mutex
                0x00000000        0x1 C:/Users/Admin/.mcuxpressotools/arm-gnu-toolchain-14.2.rel1-mingw-w64-x86_64-arm-none-eabi/bin/../lib/gcc/arm-none-eabi/14.2.1/thumb/v8-m.main+fp/hard\libc_nano.a(libc_a-lock.o)
 .bss.__lock___sfp_recursive_mutex
                0x00000000        0x1 C:/Users/Admin/.mcuxpressotools/arm-gnu-toolchain-14.2.rel1-mingw-w64-x86_64-arm-none-eabi/bin/../lib/gcc/arm-none-eabi/14.2.1/thumb/v8-m.main+fp/hard\libc_nano.a(libc_a-lock.o)
 .debug_frame   0x00000000       0xb0 C:/Users/Admin/.mcuxpressotools/arm-gnu-toolchain-14.2.rel1-mingw-w64-x86_64-arm-none-eabi/bin/../lib/gcc/arm-none-eabi/14.2.1/thumb/v8-m.main+fp/hard\libc_nano.a(libc_a-lock.o)
 .ARM.attributes
                0x00000000       0x38 C:/Users/Admin/.mcuxpressotools/arm-gnu-toolchain-14.2.rel1-mingw-w64-x86_64-arm-none-eabi/bin/../lib/gcc/arm-none-eabi/14.2.1/thumb/v8-m.main+fp/hard\libc_nano.a(libc_a-lock.o)
 .data          0x00000000        0x0 C:/Users/Admin/.mcuxpressotools/arm-gnu-toolchain-14.2.rel1-mingw-w64-x86_64-arm-none-eabi/bin/../lib/gcc/arm-none-eabi/14.2.1/thumb/v8-m.main+fp/hard\libc_nano.a(libc_a-strlen.o)
 .bss           0x00000000        0x0 C:/Users/Admin/.mcuxpressotools/arm-gnu-toolchain-14.2.rel1-mingw-w64-x86_64-arm-none-eabi/bin/../lib/gcc/arm-none-eabi/14.2.1/thumb/v8-m.main+fp/hard\libc_nano.a(libc_a-strlen.o)
 .ARM.extab     0x00000000        0x0 C:/Users/Admin/.mcuxpressotools/arm-gnu-toolchain-14.2.rel1-mingw-w64-x86_64-arm-none-eabi/bin/../lib/gcc/arm-none-eabi/14.2.1/thumb/v8-m.main+fp/hard\libc_nano.a(libc_a-strlen.o)
 .text          0x00000000        0x0 C:/Users/Admin/.mcuxpressotools/arm-gnu-toolchain-14.2.rel1-mingw-w64-x86_64-arm-none-eabi/bin/../lib/gcc/arm-none-eabi/14.2.1/thumb/v8-m.main+fp/hard\libc_nano.a(libc_a-freer.o)
 .data          0x00000000        0x0 C:/Users/Admin/.mcuxpressotools/arm-gnu-toolchain-14.2.rel1-mingw-w64-x86_64-arm-none-eabi/bin/../lib/gcc/arm-none-eabi/14.2.1/thumb/v8-m.main+fp/hard\libc_nano.a(libc_a-freer.o)
 .bss           0x00000000        0x0 C:/Users/Admin/.mcuxpressotools/arm-gnu-toolchain-14.2.rel1-mingw-w64-x86_64-arm-none-eabi/bin/../lib/gcc/arm-none-eabi/14.2.1/thumb/v8-m.main+fp/hard\libc_nano.a(libc_a-freer.o)
 .text._free_r  0x00000000       0x94 C:/Users/Admin/.mcuxpressotools/arm-gnu-toolchain-14.2.rel1-mingw-w64-x86_64-arm-none-eabi/bin/../lib/gcc/arm-none-eabi/14.2.1/thumb/v8-m.main+fp/hard\libc_nano.a(libc_a-freer.o)
 .debug_frame   0x00000000       0x38 C:/Users/Admin/.mcuxpressotools/arm-gnu-toolchain-14.2.rel1-mingw-w64-x86_64-arm-none-eabi/bin/../lib/gcc/arm-none-eabi/14.2.1/thumb/v8-m.main+fp/hard\libc_nano.a(libc_a-freer.o)
 .ARM.attributes
                0x00000000       0x38 C:/Users/Admin/.mcuxpressotools/arm-gnu-toolchain-14.2.rel1-mingw-w64-x86_64-arm-none-eabi/bin/../lib/gcc/arm-none-eabi/14.2.1/thumb/v8-m.main+fp/hard\libc_nano.a(libc_a-freer.o)
 .text          0x00000000        0x0 C:/Users/Admin/.mcuxpressotools/arm-gnu-toolchain-14.2.rel1-mingw-w64-x86_64-arm-none-eabi/bin/../lib/gcc/arm-none-eabi/14.2.1/thumb/v8-m.main+fp/hard\libc_nano.a(libc_a-fflush.o)
 .data          0x00000000        0x0 C:/Users/Admin/.mcuxpressotools/arm-gnu-toolchain-14.2.rel1-mingw-w64-x86_64-arm-none-eabi/bin/../lib/gcc/arm-none-eabi/14.2.1/thumb/v8-m.main+fp/hard\libc_nano.a(libc_a-fflush.o)
 .bss           0x00000000        0x0 C:/Users/Admin/.mcuxpressotools/arm-gnu-toolchain-14.2.rel1-mingw-w64-x86_64-arm-none-eabi/bin/../lib/gcc/arm-none-eabi/14.2.1/thumb/v8-m.main+fp/hard\libc_nano.a(libc_a-fflush.o)
 .text.__sflush_r
                0x00000000      0x100 C:/Users/Admin/.mcuxpressotools/arm-gnu-toolchain-14.2.rel1-mingw-w64-x86_64-arm-none-eabi/bin/../lib/gcc/arm-none-eabi/14.2.1/thumb/v8-m.main+fp/hard\libc_nano.a(libc_a-fflush.o)
 .text._fflush_r
                0x00000000       0x50 C:/Users/Admin/.mcuxpressotools/arm-gnu-toolchain-14.2.rel1-mingw-w64-x86_64-arm-none-eabi/bin/../lib/gcc/arm-none-eabi/14.2.1/thumb/v8-m.main+fp/hard\libc_nano.a(libc_a-fflush.o)
 .text.fflush   0x00000000       0x28 C:/Users/Admin/.mcuxpressotools/arm-gnu-toolchain-14.2.rel1-mingw-w64-x86_64-arm-none-eabi/bin/../lib/gcc/arm-none-eabi/14.2.1/thumb/v8-m.main+fp/hard\libc_nano.a(libc_a-fflush.o)
 .debug_frame   0x00000000       0x5c C:/Users/Admin/.mcuxpressotools/arm-gnu-toolchain-14.2.rel1-mingw-w64-x86_64-arm-none-eabi/bin/../lib/gcc/arm-none-eabi/14.2.1/thumb/v8-m.main+fp/hard\libc_nano.a(libc_a-fflush.o)
 .ARM.attributes
                0x00000000       0x38 C:/Users/Admin/.mcuxpressotools/arm-gnu-toolchain-14.2.rel1-mingw-w64-x86_64-arm-none-eabi/bin/../lib/gcc/arm-none-eabi/14.2.1/thumb/v8-m.main+fp/hard\libc_nano.a(libc_a-fflush.o)
 .text          0x00000000        0x0 C:/Users/Admin/.mcuxpressotools/arm-gnu-toolchain-14.2.rel1-mingw-w64-x86_64-arm-none-eabi/bin/../lib/gcc/arm-none-eabi/14.2.1/../../../../arm-none-eabi/lib/thumb/v8-m.main+fp/hard\libcr_newlib_nohost.a(_exit.o)
 .data          0x00000000        0x0 C:/Users/Admin/.mcuxpressotools/arm-gnu-toolchain-14.2.rel1-mingw-w64-x86_64-arm-none-eabi/bin/../lib/gcc/arm-none-eabi/14.2.1/../../../../arm-none-eabi/lib/thumb/v8-m.main+fp/hard\libcr_newlib_nohost.a(_exit.o)
 .bss           0x00000000        0x0 C:/Users/Admin/.mcuxpressotools/arm-gnu-toolchain-14.2.rel1-mingw-w64-x86_64-arm-none-eabi/bin/../lib/gcc/arm-none-eabi/14.2.1/../../../../arm-none-eabi/lib/thumb/v8-m.main+fp/hard\libcr_newlib_nohost.a(_exit.o)
 .text          0x00000000        0x0 C:/Users/Admin/.mcuxpressotools/arm-gnu-toolchain-14.2.rel1-mingw-w64-x86_64-arm-none-eabi/bin/../lib/gcc/arm-none-eabi/14.2.1/../../../../arm-none-eabi/lib/thumb/v8-m.main+fp/hard\libcr_newlib_nohost.a(close.o)
 .data          0x00000000        0x0 C:/Users/Admin/.mcuxpressotools/arm-gnu-toolchain-14.2.rel1-mingw-w64-x86_64-arm-none-eabi/bin/../lib/gcc/arm-none-eabi/14.2.1/../../../../arm-none-eabi/lib/thumb/v8-m.main+fp/hard\libcr_newlib_nohost.a(close.o)
 .bss           0x00000000        0x0 C:/Users/Admin/.mcuxpressotools/arm-gnu-toolchain-14.2.rel1-mingw-w64-x86_64-arm-none-eabi/bin/../lib/gcc/arm-none-eabi/14.2.1/../../../../arm-none-eabi/lib/thumb/v8-m.main+fp/hard\libcr_newlib_nohost.a(close.o)
 .text._close   0x00000000       0x10 C:/Users/Admin/.mcuxpressotools/arm-gnu-toolchain-14.2.rel1-mingw-w64-x86_64-arm-none-eabi/bin/../lib/gcc/arm-none-eabi/14.2.1/../../../../arm-none-eabi/lib/thumb/v8-m.main+fp/hard\libcr_newlib_nohost.a(close.o)
 .debug_info    0x00000000       0xb1 C:/Users/Admin/.mcuxpressotools/arm-gnu-toolchain-14.2.rel1-mingw-w64-x86_64-arm-none-eabi/bin/../lib/gcc/arm-none-eabi/14.2.1/../../../../arm-none-eabi/lib/thumb/v8-m.main+fp/hard\libcr_newlib_nohost.a(close.o)
 .debug_abbrev  0x00000000       0x6d C:/Users/Admin/.mcuxpressotools/arm-gnu-toolchain-14.2.rel1-mingw-w64-x86_64-arm-none-eabi/bin/../lib/gcc/arm-none-eabi/14.2.1/../../../../arm-none-eabi/lib/thumb/v8-m.main+fp/hard\libcr_newlib_nohost.a(close.o)
 .debug_loc     0x00000000       0x2b C:/Users/Admin/.mcuxpressotools/arm-gnu-toolchain-14.2.rel1-mingw-w64-x86_64-arm-none-eabi/bin/../lib/gcc/arm-none-eabi/14.2.1/../../../../arm-none-eabi/lib/thumb/v8-m.main+fp/hard\libcr_newlib_nohost.a(close.o)
 .debug_aranges
                0x00000000       0x20 C:/Users/Admin/.mcuxpressotools/arm-gnu-toolchain-14.2.rel1-mingw-w64-x86_64-arm-none-eabi/bin/../lib/gcc/arm-none-eabi/14.2.1/../../../../arm-none-eabi/lib/thumb/v8-m.main+fp/hard\libcr_newlib_nohost.a(close.o)
 .debug_ranges  0x00000000       0x10 C:/Users/Admin/.mcuxpressotools/arm-gnu-toolchain-14.2.rel1-mingw-w64-x86_64-arm-none-eabi/bin/../lib/gcc/arm-none-eabi/14.2.1/../../../../arm-none-eabi/lib/thumb/v8-m.main+fp/hard\libcr_newlib_nohost.a(close.o)
 .debug_line    0x00000000       0x55 C:/Users/Admin/.mcuxpressotools/arm-gnu-toolchain-14.2.rel1-mingw-w64-x86_64-arm-none-eabi/bin/../lib/gcc/arm-none-eabi/14.2.1/../../../../arm-none-eabi/lib/thumb/v8-m.main+fp/hard\libcr_newlib_nohost.a(close.o)
 .debug_str     0x00000000      0x216 C:/Users/Admin/.mcuxpressotools/arm-gnu-toolchain-14.2.rel1-mingw-w64-x86_64-arm-none-eabi/bin/../lib/gcc/arm-none-eabi/14.2.1/../../../../arm-none-eabi/lib/thumb/v8-m.main+fp/hard\libcr_newlib_nohost.a(close.o)
 .comment       0x00000000       0x46 C:/Users/Admin/.mcuxpressotools/arm-gnu-toolchain-14.2.rel1-mingw-w64-x86_64-arm-none-eabi/bin/../lib/gcc/arm-none-eabi/14.2.1/../../../../arm-none-eabi/lib/thumb/v8-m.main+fp/hard\libcr_newlib_nohost.a(close.o)
 .debug_frame   0x00000000       0x20 C:/Users/Admin/.mcuxpressotools/arm-gnu-toolchain-14.2.rel1-mingw-w64-x86_64-arm-none-eabi/bin/../lib/gcc/arm-none-eabi/14.2.1/../../../../arm-none-eabi/lib/thumb/v8-m.main+fp/hard\libcr_newlib_nohost.a(close.o)
 .ARM.attributes
                0x00000000       0x38 C:/Users/Admin/.mcuxpressotools/arm-gnu-toolchain-14.2.rel1-mingw-w64-x86_64-arm-none-eabi/bin/../lib/gcc/arm-none-eabi/14.2.1/../../../../arm-none-eabi/lib/thumb/v8-m.main+fp/hard\libcr_newlib_nohost.a(close.o)
 .text          0x00000000        0x0 C:/Users/Admin/.mcuxpressotools/arm-gnu-toolchain-14.2.rel1-mingw-w64-x86_64-arm-none-eabi/bin/../lib/gcc/arm-none-eabi/14.2.1/../../../../arm-none-eabi/lib/thumb/v8-m.main+fp/hard\libcr_newlib_nohost.a(lseek.o)
 .data          0x00000000        0x0 C:/Users/Admin/.mcuxpressotools/arm-gnu-toolchain-14.2.rel1-mingw-w64-x86_64-arm-none-eabi/bin/../lib/gcc/arm-none-eabi/14.2.1/../../../../arm-none-eabi/lib/thumb/v8-m.main+fp/hard\libcr_newlib_nohost.a(lseek.o)
 .bss           0x00000000        0x0 C:/Users/Admin/.mcuxpressotools/arm-gnu-toolchain-14.2.rel1-mingw-w64-x86_64-arm-none-eabi/bin/../lib/gcc/arm-none-eabi/14.2.1/../../../../arm-none-eabi/lib/thumb/v8-m.main+fp/hard\libcr_newlib_nohost.a(lseek.o)
 .text._lseek   0x00000000       0x10 C:/Users/Admin/.mcuxpressotools/arm-gnu-toolchain-14.2.rel1-mingw-w64-x86_64-arm-none-eabi/bin/../lib/gcc/arm-none-eabi/14.2.1/../../../../arm-none-eabi/lib/thumb/v8-m.main+fp/hard\libcr_newlib_nohost.a(lseek.o)
 .debug_info    0x00000000       0xd3 C:/Users/Admin/.mcuxpressotools/arm-gnu-toolchain-14.2.rel1-mingw-w64-x86_64-arm-none-eabi/bin/../lib/gcc/arm-none-eabi/14.2.1/../../../../arm-none-eabi/lib/thumb/v8-m.main+fp/hard\libcr_newlib_nohost.a(lseek.o)
 .debug_abbrev  0x00000000       0x92 C:/Users/Admin/.mcuxpressotools/arm-gnu-toolchain-14.2.rel1-mingw-w64-x86_64-arm-none-eabi/bin/../lib/gcc/arm-none-eabi/14.2.1/../../../../arm-none-eabi/lib/thumb/v8-m.main+fp/hard\libcr_newlib_nohost.a(lseek.o)
 .debug_loc     0x00000000       0x56 C:/Users/Admin/.mcuxpressotools/arm-gnu-toolchain-14.2.rel1-mingw-w64-x86_64-arm-none-eabi/bin/../lib/gcc/arm-none-eabi/14.2.1/../../../../arm-none-eabi/lib/thumb/v8-m.main+fp/hard\libcr_newlib_nohost.a(lseek.o)
 .debug_aranges
                0x00000000       0x20 C:/Users/Admin/.mcuxpressotools/arm-gnu-toolchain-14.2.rel1-mingw-w64-x86_64-arm-none-eabi/bin/../lib/gcc/arm-none-eabi/14.2.1/../../../../arm-none-eabi/lib/thumb/v8-m.main+fp/hard\libcr_newlib_nohost.a(lseek.o)
 .debug_ranges  0x00000000       0x10 C:/Users/Admin/.mcuxpressotools/arm-gnu-toolchain-14.2.rel1-mingw-w64-x86_64-arm-none-eabi/bin/../lib/gcc/arm-none-eabi/14.2.1/../../../../arm-none-eabi/lib/thumb/v8-m.main+fp/hard\libcr_newlib_nohost.a(lseek.o)
 .debug_line    0x00000000       0x56 C:/Users/Admin/.mcuxpressotools/arm-gnu-toolchain-14.2.rel1-mingw-w64-x86_64-arm-none-eabi/bin/../lib/gcc/arm-none-eabi/14.2.1/../../../../arm-none-eabi/lib/thumb/v8-m.main+fp/hard\libcr_newlib_nohost.a(lseek.o)
 .debug_str     0x00000000      0x214 C:/Users/Admin/.mcuxpressotools/arm-gnu-toolchain-14.2.rel1-mingw-w64-x86_64-arm-none-eabi/bin/../lib/gcc/arm-none-eabi/14.2.1/../../../../arm-none-eabi/lib/thumb/v8-m.main+fp/hard\libcr_newlib_nohost.a(lseek.o)
 .comment       0x00000000       0x46 C:/Users/Admin/.mcuxpressotools/arm-gnu-toolchain-14.2.rel1-mingw-w64-x86_64-arm-none-eabi/bin/../lib/gcc/arm-none-eabi/14.2.1/../../../../arm-none-eabi/lib/thumb/v8-m.main+fp/hard\libcr_newlib_nohost.a(lseek.o)
 .debug_frame   0x00000000       0x20 C:/Users/Admin/.mcuxpressotools/arm-gnu-toolchain-14.2.rel1-mingw-w64-x86_64-arm-none-eabi/bin/../lib/gcc/arm-none-eabi/14.2.1/../../../../arm-none-eabi/lib/thumb/v8-m.main+fp/hard\libcr_newlib_nohost.a(lseek.o)
 .ARM.attributes
                0x00000000       0x38 C:/Users/Admin/.mcuxpressotools/arm-gnu-toolchain-14.2.rel1-mingw-w64-x86_64-arm-none-eabi/bin/../lib/gcc/arm-none-eabi/14.2.1/../../../../arm-none-eabi/lib/thumb/v8-m.main+fp/hard\libcr_newlib_nohost.a(lseek.o)
 .text          0x00000000        0x0 C:/Users/Admin/.mcuxpressotools/arm-gnu-toolchain-14.2.rel1-mingw-w64-x86_64-arm-none-eabi/bin/../lib/gcc/arm-none-eabi/14.2.1/../../../../arm-none-eabi/lib/thumb/v8-m.main+fp/hard\libcr_newlib_nohost.a(read.o)
 .data          0x00000000        0x0 C:/Users/Admin/.mcuxpressotools/arm-gnu-toolchain-14.2.rel1-mingw-w64-x86_64-arm-none-eabi/bin/../lib/gcc/arm-none-eabi/14.2.1/../../../../arm-none-eabi/lib/thumb/v8-m.main+fp/hard\libcr_newlib_nohost.a(read.o)
 .bss           0x00000000        0x0 C:/Users/Admin/.mcuxpressotools/arm-gnu-toolchain-14.2.rel1-mingw-w64-x86_64-arm-none-eabi/bin/../lib/gcc/arm-none-eabi/14.2.1/../../../../arm-none-eabi/lib/thumb/v8-m.main+fp/hard\libcr_newlib_nohost.a(read.o)
 .text._read    0x00000000       0x10 C:/Users/Admin/.mcuxpressotools/arm-gnu-toolchain-14.2.rel1-mingw-w64-x86_64-arm-none-eabi/bin/../lib/gcc/arm-none-eabi/14.2.1/../../../../arm-none-eabi/lib/thumb/v8-m.main+fp/hard\libcr_newlib_nohost.a(read.o)
 .debug_info    0x00000000       0xd9 C:/Users/Admin/.mcuxpressotools/arm-gnu-toolchain-14.2.rel1-mingw-w64-x86_64-arm-none-eabi/bin/../lib/gcc/arm-none-eabi/14.2.1/../../../../arm-none-eabi/lib/thumb/v8-m.main+fp/hard\libcr_newlib_nohost.a(read.o)
 .debug_abbrev  0x00000000       0x9b C:/Users/Admin/.mcuxpressotools/arm-gnu-toolchain-14.2.rel1-mingw-w64-x86_64-arm-none-eabi/bin/../lib/gcc/arm-none-eabi/14.2.1/../../../../arm-none-eabi/lib/thumb/v8-m.main+fp/hard\libcr_newlib_nohost.a(read.o)
 .debug_loc     0x00000000       0x56 C:/Users/Admin/.mcuxpressotools/arm-gnu-toolchain-14.2.rel1-mingw-w64-x86_64-arm-none-eabi/bin/../lib/gcc/arm-none-eabi/14.2.1/../../../../arm-none-eabi/lib/thumb/v8-m.main+fp/hard\libcr_newlib_nohost.a(read.o)
 .debug_aranges
                0x00000000       0x20 C:/Users/Admin/.mcuxpressotools/arm-gnu-toolchain-14.2.rel1-mingw-w64-x86_64-arm-none-eabi/bin/../lib/gcc/arm-none-eabi/14.2.1/../../../../arm-none-eabi/lib/thumb/v8-m.main+fp/hard\libcr_newlib_nohost.a(read.o)
 .debug_ranges  0x00000000       0x10 C:/Users/Admin/.mcuxpressotools/arm-gnu-toolchain-14.2.rel1-mingw-w64-x86_64-arm-none-eabi/bin/../lib/gcc/arm-none-eabi/14.2.1/../../../../arm-none-eabi/lib/thumb/v8-m.main+fp/hard\libcr_newlib_nohost.a(read.o)
 .debug_line    0x00000000       0x55 C:/Users/Admin/.mcuxpressotools/arm-gnu-toolchain-14.2.rel1-mingw-w64-x86_64-arm-none-eabi/bin/../lib/gcc/arm-none-eabi/14.2.1/../../../../arm-none-eabi/lib/thumb/v8-m.main+fp/hard\libcr_newlib_nohost.a(read.o)
 .debug_str     0x00000000      0x212 C:/Users/Admin/.mcuxpressotools/arm-gnu-toolchain-14.2.rel1-mingw-w64-x86_64-arm-none-eabi/bin/../lib/gcc/arm-none-eabi/14.2.1/../../../../arm-none-eabi/lib/thumb/v8-m.main+fp/hard\libcr_newlib_nohost.a(read.o)
 .comment       0x00000000       0x46 C:/Users/Admin/.mcuxpressotools/arm-gnu-toolchain-14.2.rel1-mingw-w64-x86_64-arm-none-eabi/bin/../lib/gcc/arm-none-eabi/14.2.1/../../../../arm-none-eabi/lib/thumb/v8-m.main+fp/hard\libcr_newlib_nohost.a(read.o)
 .debug_frame   0x00000000       0x20 C:/Users/Admin/.mcuxpressotools/arm-gnu-toolchain-14.2.rel1-mingw-w64-x86_64-arm-none-eabi/bin/../lib/gcc/arm-none-eabi/14.2.1/../../../../arm-none-eabi/lib/thumb/v8-m.main+fp/hard\libcr_newlib_nohost.a(read.o)
 .ARM.attributes
                0x00000000       0x38 C:/Users/Admin/.mcuxpressotools/arm-gnu-toolchain-14.2.rel1-mingw-w64-x86_64-arm-none-eabi/bin/../lib/gcc/arm-none-eabi/14.2.1/../../../../arm-none-eabi/lib/thumb/v8-m.main+fp/hard\libcr_newlib_nohost.a(read.o)
 .text          0x00000000        0x0 C:/Users/Admin/.mcuxpressotools/arm-gnu-toolchain-14.2.rel1-mingw-w64-x86_64-arm-none-eabi/bin/../lib/gcc/arm-none-eabi/14.2.1/../../../../arm-none-eabi/lib/thumb/v8-m.main+fp/hard\libcr_newlib_nohost.a(write.o)
 .data          0x00000000        0x0 C:/Users/Admin/.mcuxpressotools/arm-gnu-toolchain-14.2.rel1-mingw-w64-x86_64-arm-none-eabi/bin/../lib/gcc/arm-none-eabi/14.2.1/../../../../arm-none-eabi/lib/thumb/v8-m.main+fp/hard\libcr_newlib_nohost.a(write.o)
 .bss           0x00000000        0x0 C:/Users/Admin/.mcuxpressotools/arm-gnu-toolchain-14.2.rel1-mingw-w64-x86_64-arm-none-eabi/bin/../lib/gcc/arm-none-eabi/14.2.1/../../../../arm-none-eabi/lib/thumb/v8-m.main+fp/hard\libcr_newlib_nohost.a(write.o)
 .text._write   0x00000000       0x10 C:/Users/Admin/.mcuxpressotools/arm-gnu-toolchain-14.2.rel1-mingw-w64-x86_64-arm-none-eabi/bin/../lib/gcc/arm-none-eabi/14.2.1/../../../../arm-none-eabi/lib/thumb/v8-m.main+fp/hard\libcr_newlib_nohost.a(write.o)
 .debug_info    0x00000000       0xd9 C:/Users/Admin/.mcuxpressotools/arm-gnu-toolchain-14.2.rel1-mingw-w64-x86_64-arm-none-eabi/bin/../lib/gcc/arm-none-eabi/14.2.1/../../../../arm-none-eabi/lib/thumb/v8-m.main+fp/hard\libcr_newlib_nohost.a(write.o)
 .debug_abbrev  0x00000000       0x9b C:/Users/Admin/.mcuxpressotools/arm-gnu-toolchain-14.2.rel1-mingw-w64-x86_64-arm-none-eabi/bin/../lib/gcc/arm-none-eabi/14.2.1/../../../../arm-none-eabi/lib/thumb/v8-m.main+fp/hard\libcr_newlib_nohost.a(write.o)
 .debug_loc     0x00000000       0x56 C:/Users/Admin/.mcuxpressotools/arm-gnu-toolchain-14.2.rel1-mingw-w64-x86_64-arm-none-eabi/bin/../lib/gcc/arm-none-eabi/14.2.1/../../../../arm-none-eabi/lib/thumb/v8-m.main+fp/hard\libcr_newlib_nohost.a(write.o)
 .debug_aranges
                0x00000000       0x20 C:/Users/Admin/.mcuxpressotools/arm-gnu-toolchain-14.2.rel1-mingw-w64-x86_64-arm-none-eabi/bin/../lib/gcc/arm-none-eabi/14.2.1/../../../../arm-none-eabi/lib/thumb/v8-m.main+fp/hard\libcr_newlib_nohost.a(write.o)
 .debug_ranges  0x00000000       0x10 C:/Users/Admin/.mcuxpressotools/arm-gnu-toolchain-14.2.rel1-mingw-w64-x86_64-arm-none-eabi/bin/../lib/gcc/arm-none-eabi/14.2.1/../../../../arm-none-eabi/lib/thumb/v8-m.main+fp/hard\libcr_newlib_nohost.a(write.o)
 .debug_line    0x00000000       0x56 C:/Users/Admin/.mcuxpressotools/arm-gnu-toolchain-14.2.rel1-mingw-w64-x86_64-arm-none-eabi/bin/../lib/gcc/arm-none-eabi/14.2.1/../../../../arm-none-eabi/lib/thumb/v8-m.main+fp/hard\libcr_newlib_nohost.a(write.o)
 .debug_str     0x00000000      0x214 C:/Users/Admin/.mcuxpressotools/arm-gnu-toolchain-14.2.rel1-mingw-w64-x86_64-arm-none-eabi/bin/../lib/gcc/arm-none-eabi/14.2.1/../../../../arm-none-eabi/lib/thumb/v8-m.main+fp/hard\libcr_newlib_nohost.a(write.o)
 .comment       0x00000000       0x46 C:/Users/Admin/.mcuxpressotools/arm-gnu-toolchain-14.2.rel1-mingw-w64-x86_64-arm-none-eabi/bin/../lib/gcc/arm-none-eabi/14.2.1/../../../../arm-none-eabi/lib/thumb/v8-m.main+fp/hard\libcr_newlib_nohost.a(write.o)
 .debug_frame   0x00000000       0x20 C:/Users/Admin/.mcuxpressotools/arm-gnu-toolchain-14.2.rel1-mingw-w64-x86_64-arm-none-eabi/bin/../lib/gcc/arm-none-eabi/14.2.1/../../../../arm-none-eabi/lib/thumb/v8-m.main+fp/hard\libcr_newlib_nohost.a(write.o)
 .ARM.attributes
                0x00000000       0x38 C:/Users/Admin/.mcuxpressotools/arm-gnu-toolchain-14.2.rel1-mingw-w64-x86_64-arm-none-eabi/bin/../lib/gcc/arm-none-eabi/14.2.1/../../../../arm-none-eabi/lib/thumb/v8-m.main+fp/hard\libcr_newlib_nohost.a(write.o)
 .text          0x00000000        0x0 C:/Users/Admin/.mcuxpressotools/arm-gnu-toolchain-14.2.rel1-mingw-w64-x86_64-arm-none-eabi/bin/../lib/gcc/arm-none-eabi/14.2.1/thumb/v8-m.main+fp/hard/crtend.o
 .data          0x00000000        0x0 C:/Users/Admin/.mcuxpressotools/arm-gnu-toolchain-14.2.rel1-mingw-w64-x86_64-arm-none-eabi/bin/../lib/gcc/arm-none-eabi/14.2.1/thumb/v8-m.main+fp/hard/crtend.o
 .bss           0x00000000        0x0 C:/Users/Admin/.mcuxpressotools/arm-gnu-toolchain-14.2.rel1-mingw-w64-x86_64-arm-none-eabi/bin/../lib/gcc/arm-none-eabi/14.2.1/thumb/v8-m.main+fp/hard/crtend.o
 .rodata.all_implied_fbits
                0x00000000       0x24 C:/Users/Admin/.mcuxpressotools/arm-gnu-toolchain-14.2.rel1-mingw-w64-x86_64-arm-none-eabi/bin/../lib/gcc/arm-none-eabi/14.2.1/thumb/v8-m.main+fp/hard/crtend.o
 .eh_frame      0x00000000        0x4 C:/Users/Admin/.mcuxpressotools/arm-gnu-toolchain-14.2.rel1-mingw-w64-x86_64-arm-none-eabi/bin/../lib/gcc/arm-none-eabi/14.2.1/thumb/v8-m.main+fp/hard/crtend.o
 .text          0x00000000        0x0 C:/Users/Admin/.mcuxpressotools/arm-gnu-toolchain-14.2.rel1-mingw-w64-x86_64-arm-none-eabi/bin/../lib/gcc/arm-none-eabi/14.2.1/thumb/v8-m.main+fp/hard/crtn.o
 .data          0x00000000        0x0 C:/Users/Admin/.mcuxpressotools/arm-gnu-toolchain-14.2.rel1-mingw-w64-x86_64-arm-none-eabi/bin/../lib/gcc/arm-none-eabi/14.2.1/thumb/v8-m.main+fp/hard/crtn.o
 .bss           0x00000000        0x0 C:/Users/Admin/.mcuxpressotools/arm-gnu-toolchain-14.2.rel1-mingw-w64-x86_64-arm-none-eabi/bin/../lib/gcc/arm-none-eabi/14.2.1/thumb/v8-m.main+fp/hard/crtn.o

Memory Configuration

Name             Origin             Length             Attributes
m_interrupts     0x0ffe0000         0x00000478         xr
m_text           0x0ffe0478         0x0001fb88         xr
m_m33_suspend_ram 0x20000000         0x00002000         rw
m_a55_suspend_ram 0x20002000         0x00001000         rw
m_data           0x20003000         0x0001c000         rw
m_rsc_tbl        0x2001f000         0x00001000         rw
*default*        0x00000000         0xffffffff

Linker script and memory map

LOAD C:/Users/Admin/.mcuxpressotools/arm-gnu-toolchain-14.2.rel1-mingw-w64-x86_64-arm-none-eabi/bin/../lib/gcc/arm-none-eabi/14.2.1/thumb/v8-m.main+fp/hard/crti.o
LOAD C:/Users/Admin/.mcuxpressotools/arm-gnu-toolchain-14.2.rel1-mingw-w64-x86_64-arm-none-eabi/bin/../lib/gcc/arm-none-eabi/14.2.1/thumb/v8-m.main+fp/hard/crtbegin.o
LOAD C:/Users/Admin/.mcuxpressotools/arm-gnu-toolchain-14.2.rel1-mingw-w64-x86_64-arm-none-eabi/bin/../lib/gcc/arm-none-eabi/14.2.1/thumb/v8-m.main+fp/hard/crt0.o
LOAD CMakeFiles/freertos_hello.elf.dir/D_/IMX93/PROJECT/mcimx93evk_freertos_hello/pin_mux.c.obj
LOAD CMakeFiles/freertos_hello.elf.dir/D_/IMX93/PROJECT/mcimx93evk_freertos_hello/freertos_hello.c.obj
LOAD CMakeFiles/freertos_hello.elf.dir/D_/IMX93/PROJECT/mcimx93evk_freertos_hello/board.c.obj
LOAD CMakeFiles/freertos_hello.elf.dir/D_/IMX93/PROJECT/mcimx93evk_freertos_hello/clock_config.c.obj
LOAD CMakeFiles/freertos_hello.elf.dir/D_/PROJECT/XpressoSDK/SDK_2_14_0_MIMX9352xxxxK/components/lists/fsl_component_generic_list.c.obj
LOAD CMakeFiles/freertos_hello.elf.dir/D_/PROJECT/XpressoSDK/SDK_2_14_0_MIMX9352xxxxK/components/uart/fsl_adapter_lpuart.c.obj
LOAD CMakeFiles/freertos_hello.elf.dir/D_/PROJECT/XpressoSDK/SDK_2_14_0_MIMX9352xxxxK/components/serial_manager/fsl_component_serial_manager.c.obj
LOAD CMakeFiles/freertos_hello.elf.dir/D_/PROJECT/XpressoSDK/SDK_2_14_0_MIMX9352xxxxK/components/serial_manager/fsl_component_serial_port_uart.c.obj
LOAD CMakeFiles/freertos_hello.elf.dir/D_/PROJECT/XpressoSDK/SDK_2_14_0_MIMX9352xxxxK/devices/MIMX9352/system_MIMX9352_cm33.c.obj
LOAD CMakeFiles/freertos_hello.elf.dir/D_/PROJECT/XpressoSDK/SDK_2_14_0_MIMX9352xxxxK/devices/MIMX9352/gcc/startup_MIMX9352_cm33.S.obj
LOAD CMakeFiles/freertos_hello.elf.dir/D_/PROJECT/XpressoSDK/SDK_2_14_0_MIMX9352xxxxK/devices/MIMX9352/drivers/fsl_cache.c.obj
LOAD CMakeFiles/freertos_hello.elf.dir/D_/PROJECT/XpressoSDK/SDK_2_14_0_MIMX9352xxxxK/devices/MIMX9352/drivers/fsl_clock.c.obj
LOAD CMakeFiles/freertos_hello.elf.dir/D_/PROJECT/XpressoSDK/SDK_2_14_0_MIMX9352xxxxK/devices/MIMX9352/drivers/fsl_common.c.obj
LOAD CMakeFiles/freertos_hello.elf.dir/D_/PROJECT/XpressoSDK/SDK_2_14_0_MIMX9352xxxxK/devices/MIMX9352/drivers/fsl_common_arm.c.obj
LOAD CMakeFiles/freertos_hello.elf.dir/D_/PROJECT/XpressoSDK/SDK_2_14_0_MIMX9352xxxxK/devices/MIMX9352/drivers/fsl_lpuart.c.obj
LOAD CMakeFiles/freertos_hello.elf.dir/D_/PROJECT/XpressoSDK/SDK_2_14_0_MIMX9352xxxxK/devices/MIMX9352/drivers/fsl_rgpio.c.obj
LOAD CMakeFiles/freertos_hello.elf.dir/D_/PROJECT/XpressoSDK/SDK_2_14_0_MIMX9352xxxxK/devices/MIMX9352/drivers/fsl_sentinel.c.obj
LOAD CMakeFiles/freertos_hello.elf.dir/D_/PROJECT/XpressoSDK/SDK_2_14_0_MIMX9352xxxxK/rtos/freertos/freertos-kernel/croutine.c.obj
LOAD CMakeFiles/freertos_hello.elf.dir/D_/PROJECT/XpressoSDK/SDK_2_14_0_MIMX9352xxxxK/rtos/freertos/freertos-kernel/event_groups.c.obj
LOAD CMakeFiles/freertos_hello.elf.dir/D_/PROJECT/XpressoSDK/SDK_2_14_0_MIMX9352xxxxK/rtos/freertos/freertos-kernel/list.c.obj
LOAD CMakeFiles/freertos_hello.elf.dir/D_/PROJECT/XpressoSDK/SDK_2_14_0_MIMX9352xxxxK/rtos/freertos/freertos-kernel/queue.c.obj
LOAD CMakeFiles/freertos_hello.elf.dir/D_/PROJECT/XpressoSDK/SDK_2_14_0_MIMX9352xxxxK/rtos/freertos/freertos-kernel/stream_buffer.c.obj
LOAD CMakeFiles/freertos_hello.elf.dir/D_/PROJECT/XpressoSDK/SDK_2_14_0_MIMX9352xxxxK/rtos/freertos/freertos-kernel/tasks.c.obj
LOAD CMakeFiles/freertos_hello.elf.dir/D_/PROJECT/XpressoSDK/SDK_2_14_0_MIMX9352xxxxK/rtos/freertos/freertos-kernel/timers.c.obj
LOAD CMakeFiles/freertos_hello.elf.dir/D_/PROJECT/XpressoSDK/SDK_2_14_0_MIMX9352xxxxK/rtos/freertos/freertos-kernel/portable/GCC/ARM_CM33_NTZ/non_secure/port.c.obj
LOAD CMakeFiles/freertos_hello.elf.dir/D_/PROJECT/XpressoSDK/SDK_2_14_0_MIMX9352xxxxK/rtos/freertos/freertos-kernel/portable/GCC/ARM_CM33_NTZ/non_secure/portasm.c.obj
LOAD CMakeFiles/freertos_hello.elf.dir/D_/PROJECT/XpressoSDK/SDK_2_14_0_MIMX9352xxxxK/rtos/freertos/freertos-kernel/portable/MemMang/heap_4.c.obj
LOAD CMakeFiles/freertos_hello.elf.dir/D_/PROJECT/XpressoSDK/SDK_2_14_0_MIMX9352xxxxK/devices/MIMX9352/utilities/fsl_sbrk.c.obj
LOAD CMakeFiles/freertos_hello.elf.dir/D_/PROJECT/XpressoSDK/SDK_2_14_0_MIMX9352xxxxK/devices/MIMX9352/utilities/fsl_memcpy.S.obj
LOAD CMakeFiles/freertos_hello.elf.dir/D_/PROJECT/XpressoSDK/SDK_2_14_0_MIMX9352xxxxK/devices/MIMX9352/utilities/fsl_assert.c.obj
LOAD CMakeFiles/freertos_hello.elf.dir/D_/PROJECT/XpressoSDK/SDK_2_14_0_MIMX9352xxxxK/devices/MIMX9352/utilities/str/fsl_str.c.obj
LOAD CMakeFiles/freertos_hello.elf.dir/D_/PROJECT/XpressoSDK/SDK_2_14_0_MIMX9352xxxxK/devices/MIMX9352/utilities/debug_console/fsl_debug_console.c.obj
START GROUP
LOAD C:/Users/Admin/.mcuxpressotools/arm-gnu-toolchain-14.2.rel1-mingw-w64-x86_64-arm-none-eabi/bin/../lib/gcc/arm-none-eabi/14.2.1/thumb/v8-m.main+fp/hard\libgcc.a
LOAD C:/Users/Admin/.mcuxpressotools/arm-gnu-toolchain-14.2.rel1-mingw-w64-x86_64-arm-none-eabi/bin/../lib/gcc/arm-none-eabi/14.2.1/thumb/v8-m.main+fp/hard\libc_nano.a
LOAD C:/Users/Admin/.mcuxpressotools/arm-gnu-toolchain-14.2.rel1-mingw-w64-x86_64-arm-none-eabi/bin/../lib/gcc/arm-none-eabi/14.2.1/thumb/v8-m.main+fp/hard\libm.a
LOAD C:/Users/Admin/.mcuxpressotools/arm-gnu-toolchain-14.2.rel1-mingw-w64-x86_64-arm-none-eabi/bin/../lib/gcc/arm-none-eabi/14.2.1/../../../../arm-none-eabi/lib/thumb/v8-m.main+fp/hard\libcr_newlib_nohost.a
END GROUP
START GROUP
LOAD C:/Users/Admin/.mcuxpressotools/arm-gnu-toolchain-14.2.rel1-mingw-w64-x86_64-arm-none-eabi/bin/../lib/gcc/arm-none-eabi/14.2.1/thumb/v8-m.main+fp/hard\libgcc.a
LOAD C:/Users/Admin/.mcuxpressotools/arm-gnu-toolchain-14.2.rel1-mingw-w64-x86_64-arm-none-eabi/bin/../lib/gcc/arm-none-eabi/14.2.1/thumb/v8-m.main+fp/hard\libg_nano.a
LOAD C:/Users/Admin/.mcuxpressotools/arm-gnu-toolchain-14.2.rel1-mingw-w64-x86_64-arm-none-eabi/bin/../lib/gcc/arm-none-eabi/14.2.1/thumb/v8-m.main+fp/hard\libc_nano.a
END GROUP
START GROUP
LOAD C:/Users/Admin/.mcuxpressotools/arm-gnu-toolchain-14.2.rel1-mingw-w64-x86_64-arm-none-eabi/bin/../lib/gcc/arm-none-eabi/14.2.1/thumb/v8-m.main+fp/hard\libgcc.a
LOAD C:/Users/Admin/.mcuxpressotools/arm-gnu-toolchain-14.2.rel1-mingw-w64-x86_64-arm-none-eabi/bin/../lib/gcc/arm-none-eabi/14.2.1/thumb/v8-m.main+fp/hard\libc_nano.a
LOAD C:/Users/Admin/.mcuxpressotools/arm-gnu-toolchain-14.2.rel1-mingw-w64-x86_64-arm-none-eabi/bin/../lib/gcc/arm-none-eabi/14.2.1/thumb/v8-m.main+fp/hard\libnosys.a
END GROUP
START GROUP
LOAD C:/Users/Admin/.mcuxpressotools/arm-gnu-toolchain-14.2.rel1-mingw-w64-x86_64-arm-none-eabi/bin/../lib/gcc/arm-none-eabi/14.2.1/thumb/v8-m.main+fp/hard\libgcc.a
LOAD C:/Users/Admin/.mcuxpressotools/arm-gnu-toolchain-14.2.rel1-mingw-w64-x86_64-arm-none-eabi/bin/../lib/gcc/arm-none-eabi/14.2.1/thumb/v8-m.main+fp/hard\libc_nano.a
LOAD C:/Users/Admin/.mcuxpressotools/arm-gnu-toolchain-14.2.rel1-mingw-w64-x86_64-arm-none-eabi/bin/../lib/gcc/arm-none-eabi/14.2.1/thumb/v8-m.main+fp/hard\libnosys.a
END GROUP
LOAD C:/Users/Admin/.mcuxpressotools/arm-gnu-toolchain-14.2.rel1-mingw-w64-x86_64-arm-none-eabi/bin/../lib/gcc/arm-none-eabi/14.2.1/thumb/v8-m.main+fp/hard/crtend.o
LOAD C:/Users/Admin/.mcuxpressotools/arm-gnu-toolchain-14.2.rel1-mingw-w64-x86_64-arm-none-eabi/bin/../lib/gcc/arm-none-eabi/14.2.1/thumb/v8-m.main+fp/hard/crtn.o
                0x00000400                        HEAP_SIZE = DEFINED (__heap_size__)?__heap_size__:0x400
                0x00000400                        STACK_SIZE = DEFINED (__stack_size__)?__stack_size__:0x400
                0x00000000                        M_VECTOR_RAM_SIZE = DEFINED (__ram_vector_table__)?0x478:0x0

.interrupts     0x0ffe0000      0x474
                0x0ffe0000                        __VECTOR_TABLE = .
                0x0ffe0000                        __Vectors = .
                0x0ffe0000                        . = ALIGN (0x4)
 *(.isr_vector)
 .isr_vector    0x0ffe0000      0x474 CMakeFiles/freertos_hello.elf.dir/D_/PROJECT/XpressoSDK/SDK_2_14_0_MIMX9352xxxxK/devices/MIMX9352/gcc/startup_MIMX9352_cm33.S.obj
                0x0ffe0000                __isr_vector
                0x0ffe0474                        . = ALIGN (0x4)

.resource_table
                0x0ffe0478        0x0
                0x0ffe0478                        . = ALIGN (0x8)
 *(.resource_table)
                0x0ffe0478                        . = ALIGN (0x8)

.text           0x0ffe0480     0x48b4
                0x0ffe0480                        . = ALIGN (0x4)
 *(.text)
 .text          0x0ffe0480       0x7c C:/Users/Admin/.mcuxpressotools/arm-gnu-toolchain-14.2.rel1-mingw-w64-x86_64-arm-none-eabi/bin/../lib/gcc/arm-none-eabi/14.2.1/thumb/v8-m.main+fp/hard/crt0.o
                0x0ffe0480                _stack_init
                0x0ffe0488                _start
                0x0ffe0488                _mainCRTStartup
 .text          0x0ffe04fc      0x4ac CMakeFiles/freertos_hello.elf.dir/D_/PROJECT/XpressoSDK/SDK_2_14_0_MIMX9352xxxxK/devices/MIMX9352/gcc/startup_MIMX9352_cm33.S.obj
                0x0ffe04fc                Reset_Handler
                0x0ffe0574                LPI2C8_DriverIRQHandler
                0x0ffe0574                Reserved237_IRQHandler
                0x0ffe0574                DMA4_14_15_DriverIRQHandler
                0x0ffe0574                Reserved16_IRQHandler
                0x0ffe0574                MU2_A_IRQHandler
                0x0ffe0574                Reserved179_IRQHandler
                0x0ffe0574                LPSPI2_DriverIRQHandler
                0x0ffe0574                DMA4_20_21_DriverIRQHandler
                0x0ffe0574                Reserved219_IRQHandler
                0x0ffe0574                DebugMon_Handler
                0x0ffe0574                Reserved178_IRQHandler
                0x0ffe0574                Reserved220_IRQHandler
                0x0ffe0574                LPI2C7_DriverIRQHandler
                0x0ffe0574                Reserved88_IRQHandler
                0x0ffe0574                Reserved281_IRQHandler
                0x0ffe0574                Reserved243_IRQHandler
                0x0ffe0574                Reserved65_IRQHandler
                0x0ffe0574                Reserved229_IRQHandler
                0x0ffe0574                FlexSPI1_DriverIRQHandler
                0x0ffe0574                Reserved49_IRQHandler
                0x0ffe0574                CAN1_DriverIRQHandler
                0x0ffe0574                LPTMR1_IRQHandler
                0x0ffe0574                WDOG3_IRQHandler
                0x0ffe0574                Reserved76_IRQHandler
                0x0ffe0574                Reserved248_IRQHandler
                0x0ffe0574                Reserved64_IRQHandler
                0x0ffe0574                LPSPI4_DriverIRQHandler
                0x0ffe0574                Reserved60_IRQHandler
                0x0ffe0574                Reserved236_IRQHandler
                0x0ffe0574                Reserved234_IRQHandler
                0x0ffe0574                Reserved225_IRQHandler
                0x0ffe0574                CSI_IRQHandler
                0x0ffe0574                LPI2C5_DriverIRQHandler
                0x0ffe0574                Reserved50_IRQHandler
                0x0ffe0574                TRDC_IRQHandler
                0x0ffe0574                Reserved183_IRQHandler
                0x0ffe0574                DMA4_40_41_DriverIRQHandler
                0x0ffe0574                LPIT2_IRQHandler
                0x0ffe0574                LPI2C2_DriverIRQHandler
                0x0ffe0574                PDM_HWVAD_EVENT_DriverIRQHandler
                0x0ffe0574                Reserved19_IRQHandler
                0x0ffe0574                DMA4_0_1_DriverIRQHandler
                0x0ffe0574                Reserved74_IRQHandler
                0x0ffe0574                Reserved89_IRQHandler
                0x0ffe0574                Reserved201_IRQHandler
                0x0ffe0574                Reserved59_IRQHandler
                0x0ffe0574                LPSPI3_DriverIRQHandler
                0x0ffe0574                LPTMR2_IRQHandler
                0x0ffe0574                PDM_HWVAD_ERROR_DriverIRQHandler
                0x0ffe0574                Reserved272_IRQHandler
                0x0ffe0574                DMA4_46_47_DriverIRQHandler
                0x0ffe0574                BusFault_Handler
                0x0ffe0574                Reserved263_IRQHandler
                0x0ffe0574                DMA4_58_59_DriverIRQHandler
                0x0ffe0574                DMA4_16_17_DriverIRQHandler
                0x0ffe0574                TPM5_IRQHandler
                0x0ffe0574                MU1_A_IRQHandler
                0x0ffe0574                ENET_1588_DriverIRQHandler
                0x0ffe0574                LPI2C3_DriverIRQHandler
                0x0ffe0574                Reserved247_IRQHandler
                0x0ffe0574                DMA4_52_53_DriverIRQHandler
                0x0ffe0574                I3C1_DriverIRQHandler
                0x0ffe0574                Reserved63_IRQHandler
                0x0ffe0574                WDOG5_IRQHandler
                0x0ffe0574                DMA4_42_43_DriverIRQHandler
                0x0ffe0574                Reserved44_IRQHandler
                0x0ffe0574                CAN1_ERROR_DriverIRQHandler
                0x0ffe0574                Reserved42_IRQHandler
                0x0ffe0574                LPIT1_IRQHandler
                0x0ffe0574                Reserved22_IRQHandler
                0x0ffe0574                Reserved192_IRQHandler
                0x0ffe0574                Reserved51_IRQHandler
                0x0ffe0574                Reserved75_IRQHandler
                0x0ffe0574                Reserved238_IRQHandler
                0x0ffe0574                Reserved280_IRQHandler
                0x0ffe0574                uSDHC2_DriverIRQHandler
                0x0ffe0574                Reserved268_IRQHandler
                0x0ffe0574                DMA4_10_11_DriverIRQHandler
                0x0ffe0574                DMA4_34_35_DriverIRQHandler
                0x0ffe0574                Reserved176_IRQHandler
                0x0ffe0574                Reserved233_IRQHandler
                0x0ffe0574                Reserved224_IRQHandler
                0x0ffe0574                FLEXIO2_DriverIRQHandler
                0x0ffe0574                DMA4_22_23_DriverIRQHandler
                0x0ffe0574                UsageFault_Handler
                0x0ffe0574                WDOG1_IRQHandler
                0x0ffe0574                uSDHC1_DriverIRQHandler
                0x0ffe0574                Reserved265_IRQHandler
                0x0ffe0574                Reserved106_IRQHandler
                0x0ffe0574                Reserved235_IRQHandler
                0x0ffe0574                Reserved57_IRQHandler
                0x0ffe0574                TPM1_IRQHandler
                0x0ffe0574                Reserved257_IRQHandler
                0x0ffe0574                TEMPMON_IRQHandler
                0x0ffe0574                DMA4_30_31_DriverIRQHandler
                0x0ffe0574                DefaultISR
                0x0ffe0574                Reserved250_IRQHandler
                0x0ffe0574                Reserved73_IRQHandler
                0x0ffe0574                Reserved58_IRQHandler
                0x0ffe0574                DMA4_38_39_DriverIRQHandler
                0x0ffe0574                Reserved264_IRQHandler
                0x0ffe0574                Reserved261_IRQHandler
                0x0ffe0574                Reserved284_IRQHandler
                0x0ffe0574                I3C2_DriverIRQHandler
                0x0ffe0574                LPI2C4_DriverIRQHandler
                0x0ffe0574                DMA4_4_5_DriverIRQHandler
                0x0ffe0574                Reserved230_IRQHandler
                0x0ffe0574                Reserved279_IRQHandler
                0x0ffe0574                Reserved45_IRQHandler
                0x0ffe0574                Reserved182_IRQHandler
                0x0ffe0574                DMA4_50_51_DriverIRQHandler
                0x0ffe0574                Reserved180_IRQHandler
                0x0ffe0574                Reserved240_IRQHandler
                0x0ffe0574                Reserved267_IRQHandler
                0x0ffe0574                Reserved239_IRQHandler
                0x0ffe0574                MU1_B_IRQHandler
                0x0ffe0574                Reserved177_IRQHandler
                0x0ffe0574                WDOG4_IRQHandler
                0x0ffe0574                Reserved283_IRQHandler
                0x0ffe0574                DMA4_28_29_DriverIRQHandler
                0x0ffe0574                Reserved228_IRQHandler
                0x0ffe0574                Reserved266_IRQHandler
                0x0ffe0574                DMA4_ERROR_DriverIRQHandler
                0x0ffe0574                Reserved23_IRQHandler
                0x0ffe0574                Reserved253_IRQHandler
                0x0ffe0574                DMA4_6_7_DriverIRQHandler
                0x0ffe0574                ENET_MAC0_Rx_Tx_Done2_DriverIRQHandler
                0x0ffe0574                Reserved274_IRQHandler
                0x0ffe0574                Reserved270_IRQHandler
                0x0ffe0574                LPI2C6_DriverIRQHandler
                0x0ffe0574                DMA4_56_57_DriverIRQHandler
                0x0ffe0574                LPSPI5_DriverIRQHandler
                0x0ffe0574                TPM2_IRQHandler
                0x0ffe0574                FLEXIO1_DriverIRQHandler
                0x0ffe0574                Reserved232_IRQHandler
                0x0ffe0574                ENET_DriverIRQHandler
                0x0ffe0574                Reserved43_IRQHandler
                0x0ffe0574                TPM4_IRQHandler
                0x0ffe0574                DMA4_36_37_DriverIRQHandler
                0x0ffe0574                Reserved21_IRQHandler
                0x0ffe0574                ENET_QOS_DriverIRQHandler
                0x0ffe0574                Reserved18_IRQHandler
                0x0ffe0574                DMA4_26_27_DriverIRQHandler
                0x0ffe0574                SAI1_DriverIRQHandler
                0x0ffe0574                Reserved278_IRQHandler
                0x0ffe0574                Reserved246_IRQHandler
                0x0ffe0574                Reserved277_IRQHandler
                0x0ffe0574                DMA3_DriverIRQHandler
                0x0ffe0574                TPM3_IRQHandler
                0x0ffe0574                Reserved241_IRQHandler
                0x0ffe0574                Reserved27_IRQHandler
                0x0ffe0574                WDOG2_IRQHandler
                0x0ffe0574                Reserved273_IRQHandler
                0x0ffe0574                Reserved202_IRQHandler
                0x0ffe0574                Reserved62_IRQHandler
                0x0ffe0574                Reserved275_IRQHandler
                0x0ffe0574                Reserved256_IRQHandler
                0x0ffe0574                Reserved46_IRQHandler
                0x0ffe0574                Reserved252_IRQHandler
                0x0ffe0574                Reserved206_IRQHandler
                0x0ffe0574                Reserved251_IRQHandler
                0x0ffe0574                DMA4_18_19_DriverIRQHandler
                0x0ffe0574                DSI_IRQHandler
                0x0ffe0574                Reserved245_IRQHandler
                0x0ffe0574                Reserved181_IRQHandler
                0x0ffe0574                Reserved26_IRQHandler
                0x0ffe0574                Reserved108_IRQHandler
                0x0ffe0574                Reserved72_IRQHandler
                0x0ffe0574                DMA4_12_13_DriverIRQHandler
                0x0ffe0574                LPSPI1_DriverIRQHandler
                0x0ffe0574                Reserved259_IRQHandler
                0x0ffe0574                Reserved194_IRQHandler
                0x0ffe0574                SecureFault_Handler
                0x0ffe0574                DMA4_8_9_DriverIRQHandler
                0x0ffe0574                LPSPI7_DriverIRQHandler
                0x0ffe0574                PDM_ERROR_DriverIRQHandler
                0x0ffe0574                Reserved66_IRQHandler
                0x0ffe0574                Reserved20_IRQHandler
                0x0ffe0574                Reserved100_IRQHandler
                0x0ffe0574                Reserved249_IRQHandler
                0x0ffe0574                Reserved107_IRQHandler
                0x0ffe0574                Reserved184_IRQHandler
                0x0ffe0574                Reserved142_IRQHandler
                0x0ffe0574                LPSPI8_DriverIRQHandler
                0x0ffe0574                Reserved98_IRQHandler
                0x0ffe0574                Reserved17_IRQHandler
                0x0ffe0574                DMA4_48_49_DriverIRQHandler
                0x0ffe0574                Reserved189_IRQHandler
                0x0ffe0574                Reserved47_IRQHandler
                0x0ffe0574                Reserved271_IRQHandler
                0x0ffe0574                Reserved258_IRQHandler
                0x0ffe0574                Reserved262_IRQHandler
                0x0ffe0574                CAN2_DriverIRQHandler
                0x0ffe0574                DMA4_62_63_DriverIRQHandler
                0x0ffe0574                CAN2_ERROR_DriverIRQHandler
                0x0ffe0574                LPI2C1_DriverIRQHandler
                0x0ffe0574                DMA4_44_45_DriverIRQHandler
                0x0ffe0574                ENET_MAC0_Rx_Tx_Done1_DriverIRQHandler
                0x0ffe0574                Reserved190_IRQHandler
                0x0ffe0574                Reserved231_IRQHandler
                0x0ffe0574                Reserved276_IRQHandler
                0x0ffe0574                Reserved282_IRQHandler
                0x0ffe0574                Reserved260_IRQHandler
                0x0ffe0574                Reserved105_IRQHandler
                0x0ffe0574                DMA4_2_3_DriverIRQHandler
                0x0ffe0574                Reserved255_IRQHandler
                0x0ffe0574                Reserved269_IRQHandler
                0x0ffe0574                DMA4_24_25_DriverIRQHandler
                0x0ffe0574                Reserved104_IRQHandler
                0x0ffe0574                Reserved203_IRQHandler
                0x0ffe0574                ISI_IRQHandler
                0x0ffe0574                Reserved101_IRQHandler
                0x0ffe0574                Reserved223_IRQHandler
                0x0ffe0574                DMA4_32_33_DriverIRQHandler
                0x0ffe0574                Reserved204_IRQHandler
                0x0ffe0574                Reserved244_IRQHandler
                0x0ffe0574                uSDHC3_DriverIRQHandler
                0x0ffe0574                Reserved109_IRQHandler
                0x0ffe0574                Reserved41_IRQHandler
                0x0ffe0574                Reserved254_IRQHandler
                0x0ffe0574                DMA4_60_61_DriverIRQHandler
                0x0ffe0574                MemManage_Handler
                0x0ffe0574                Reserved90_IRQHandler
                0x0ffe0574                SAI2_DriverIRQHandler
                0x0ffe0574                LPSPI6_DriverIRQHandler
                0x0ffe0574                Reserved242_IRQHandler
                0x0ffe0574                Reserved205_IRQHandler
                0x0ffe0574                TPM6_IRQHandler
                0x0ffe0574                Reserved48_IRQHandler
                0x0ffe0574                PDM_EVENT_DriverIRQHandler
                0x0ffe0574                SAI3_DriverIRQHandler
                0x0ffe0574                MU2_B_IRQHandler
                0x0ffe0574                ENET_QOS_PMT_IRQHandler
                0x0ffe0574                Reserved185_IRQHandler
                0x0ffe0574                Reserved222_IRQHandler
                0x0ffe0574                DMA4_54_55_DriverIRQHandler
                0x0ffe0578                NMI_Handler
                0x0ffe057c                HardFault_Handler
                0x0ffe058c                CAN1_IRQHandler
                0x0ffe0590                CAN1_ERROR_IRQHandler
                0x0ffe0594                I3C1_IRQHandler
                0x0ffe0598                LPI2C1_IRQHandler
                0x0ffe059c                LPI2C2_IRQHandler
                0x0ffe05a0                LPSPI1_IRQHandler
                0x0ffe05a4                LPSPI2_IRQHandler
                0x0ffe05a8                LPUART1_IRQHandler
                0x0ffe05ac                LPUART2_IRQHandler
                0x0ffe05b0                SAI1_IRQHandler
                0x0ffe05b4                CAN2_IRQHandler
                0x0ffe05b8                CAN2_ERROR_IRQHandler
                0x0ffe05bc                FLEXIO1_IRQHandler
                0x0ffe05c0                FLEXIO2_IRQHandler
                0x0ffe05c4                FlexSPI1_IRQHandler
                0x0ffe05c8                I3C2_IRQHandler
                0x0ffe05cc                LPI2C3_IRQHandler
                0x0ffe05d0                LPI2C4_IRQHandler
                0x0ffe05d4                LPSPI3_IRQHandler
                0x0ffe05d8                LPSPI4_IRQHandler
                0x0ffe05dc                LPUART3_IRQHandler
                0x0ffe05e0                LPUART4_IRQHandler
                0x0ffe05e4                LPUART5_IRQHandler
                0x0ffe05e8                LPUART6_IRQHandler
                0x0ffe05ec                uSDHC1_IRQHandler
                0x0ffe05f0                uSDHC2_IRQHandler
                0x0ffe05f4                DMA3_ERROR_IRQHandler
                0x0ffe05fc                DMA3_0_IRQHandler
                0x0ffe0608                DMA3_1_IRQHandler
                0x0ffe0614                DMA3_2_IRQHandler
                0x0ffe0620                DMA3_3_IRQHandler
                0x0ffe062c                DMA3_4_IRQHandler
                0x0ffe0638                DMA3_5_IRQHandler
                0x0ffe0644                DMA3_6_IRQHandler
                0x0ffe0650                DMA3_7_IRQHandler
                0x0ffe065c                DMA3_8_IRQHandler
                0x0ffe0668                DMA3_9_IRQHandler
                0x0ffe0674                DMA3_10_IRQHandler
                0x0ffe0680                DMA3_11_IRQHandler
                0x0ffe068c                DMA3_12_IRQHandler
                0x0ffe0698                DMA3_13_IRQHandler
                0x0ffe06a4                DMA3_14_IRQHandler
                0x0ffe06b0                DMA3_15_IRQHandler
                0x0ffe06bc                DMA3_16_IRQHandler
                0x0ffe06c8                DMA3_17_IRQHandler
                0x0ffe06d4                DMA3_18_IRQHandler
                0x0ffe06e0                DMA3_19_IRQHandler
                0x0ffe06ec                DMA3_20_IRQHandler
                0x0ffe06f8                DMA3_21_IRQHandler
                0x0ffe0704                DMA3_22_IRQHandler
                0x0ffe0710                DMA3_23_IRQHandler
                0x0ffe071c                DMA3_24_IRQHandler
                0x0ffe0728                DMA3_25_IRQHandler
                0x0ffe0734                DMA3_26_IRQHandler
                0x0ffe0740                DMA3_27_IRQHandler
                0x0ffe074c                DMA3_28_IRQHandler
                0x0ffe0758                DMA3_29_IRQHandler
                0x0ffe0764                DMA3_30_IRQHandler
                0x0ffe0770                DMA4_ERROR_IRQHandler
                0x0ffe0774                DMA4_0_1_IRQHandler
                0x0ffe0778                DMA4_2_3_IRQHandler
                0x0ffe077c                DMA4_4_5_IRQHandler
                0x0ffe0780                DMA4_6_7_IRQHandler
                0x0ffe0784                DMA4_8_9_IRQHandler
                0x0ffe0788                DMA4_10_11_IRQHandler
                0x0ffe078c                DMA4_12_13_IRQHandler
                0x0ffe0790                DMA4_14_15_IRQHandler
                0x0ffe0794                DMA4_16_17_IRQHandler
                0x0ffe0798                DMA4_18_19_IRQHandler
                0x0ffe079c                DMA4_20_21_IRQHandler
                0x0ffe07a0                DMA4_22_23_IRQHandler
                0x0ffe07a4                DMA4_24_25_IRQHandler
                0x0ffe07a8                DMA4_26_27_IRQHandler
                0x0ffe07ac                DMA4_28_29_IRQHandler
                0x0ffe07b0                DMA4_30_31_IRQHandler
                0x0ffe07b4                DMA4_32_33_IRQHandler
                0x0ffe07b8                DMA4_34_35_IRQHandler
                0x0ffe07bc                DMA4_36_37_IRQHandler
                0x0ffe07c0                DMA4_38_39_IRQHandler
                0x0ffe07c4                DMA4_40_41_IRQHandler
                0x0ffe07c8                DMA4_42_43_IRQHandler
                0x0ffe07cc                DMA4_44_45_IRQHandler
                0x0ffe07d0                DMA4_46_47_IRQHandler
                0x0ffe07d4                DMA4_48_49_IRQHandler
                0x0ffe07d8                DMA4_50_51_IRQHandler
                0x0ffe07dc                DMA4_52_53_IRQHandler
                0x0ffe07e0                DMA4_54_55_IRQHandler
                0x0ffe07e4                DMA4_56_57_IRQHandler
                0x0ffe07e8                DMA4_58_59_IRQHandler
                0x0ffe07ec                DMA4_60_61_IRQHandler
                0x0ffe07f0                DMA4_62_63_IRQHandler
                0x0ffe07f4                SAI2_IRQHandler
                0x0ffe07f8                SAI3_IRQHandler
                0x0ffe07fc                ENET_MAC0_Rx_Tx_Done1_IRQHandler
                0x0ffe0800                ENET_MAC0_Rx_Tx_Done2_IRQHandler
                0x0ffe0804                ENET_IRQHandler
                0x0ffe0808                ENET_1588_IRQHandler
                0x0ffe080c                ENET_QOS_IRQHandler
                0x0ffe0810                LPSPI5_IRQHandler
                0x0ffe0814                LPSPI6_IRQHandler
                0x0ffe0818                LPSPI7_IRQHandler
                0x0ffe081c                LPSPI8_IRQHandler
                0x0ffe0820                LPI2C5_IRQHandler
                0x0ffe0824                LPI2C6_IRQHandler
                0x0ffe0828                LPI2C7_IRQHandler
                0x0ffe082c                LPI2C8_IRQHandler
                0x0ffe0830                PDM_HWVAD_ERROR_IRQHandler
                0x0ffe0834                PDM_HWVAD_EVENT_IRQHandler
                0x0ffe0838                PDM_ERROR_IRQHandler
                0x0ffe083c                PDM_EVENT_IRQHandler
                0x0ffe0840                uSDHC3_IRQHandler
                0x0ffe0844                LPUART7_IRQHandler
                0x0ffe0848                LPUART8_IRQHandler
 .text          0x0ffe09a8       0xa0 CMakeFiles/freertos_hello.elf.dir/D_/PROJECT/XpressoSDK/SDK_2_14_0_MIMX9352xxxxK/devices/MIMX9352/utilities/fsl_memcpy.S.obj
                0x0ffe09a8                memcpy
 .text          0x0ffe0a48       0x10 C:/Users/Admin/.mcuxpressotools/arm-gnu-toolchain-14.2.rel1-mingw-w64-x86_64-arm-none-eabi/bin/../lib/gcc/arm-none-eabi/14.2.1/thumb/v8-m.main+fp/hard\libc_nano.a(libc_a-strlen.o)
                0x0ffe0a48                strlen
 *(.text*)
 .text.deregister_tm_clones
                0x0ffe0a58       0x1c C:/Users/Admin/.mcuxpressotools/arm-gnu-toolchain-14.2.rel1-mingw-w64-x86_64-arm-none-eabi/bin/../lib/gcc/arm-none-eabi/14.2.1/thumb/v8-m.main+fp/hard/crtbegin.o
 .text.register_tm_clones
                0x0ffe0a74       0x28 C:/Users/Admin/.mcuxpressotools/arm-gnu-toolchain-14.2.rel1-mingw-w64-x86_64-arm-none-eabi/bin/../lib/gcc/arm-none-eabi/14.2.1/thumb/v8-m.main+fp/hard/crtbegin.o
 .text.__do_global_dtors_aux
                0x0ffe0a9c       0x28 C:/Users/Admin/.mcuxpressotools/arm-gnu-toolchain-14.2.rel1-mingw-w64-x86_64-arm-none-eabi/bin/../lib/gcc/arm-none-eabi/14.2.1/thumb/v8-m.main+fp/hard/crtbegin.o
 .text.frame_dummy
                0x0ffe0ac4       0x24 C:/Users/Admin/.mcuxpressotools/arm-gnu-toolchain-14.2.rel1-mingw-w64-x86_64-arm-none-eabi/bin/../lib/gcc/arm-none-eabi/14.2.1/thumb/v8-m.main+fp/hard/crtbegin.o
 .text.IOMUXC_SetPinMux
                0x0ffe0ae8       0x40 CMakeFiles/freertos_hello.elf.dir/D_/IMX93/PROJECT/mcimx93evk_freertos_hello/pin_mux.c.obj
 .text.IOMUXC_SetPinConfig
                0x0ffe0b28       0x26 CMakeFiles/freertos_hello.elf.dir/D_/IMX93/PROJECT/mcimx93evk_freertos_hello/pin_mux.c.obj
 .text.BOARD_InitBootPins
                0x0ffe0b4e        0xc CMakeFiles/freertos_hello.elf.dir/D_/IMX93/PROJECT/mcimx93evk_freertos_hello/pin_mux.c.obj
                0x0ffe0b4e                BOARD_InitBootPins
 *fill*         0x0ffe0b5a        0x2 
 .text.BOARD_InitPins
                0x0ffe0b5c       0x70 CMakeFiles/freertos_hello.elf.dir/D_/IMX93/PROJECT/mcimx93evk_freertos_hello/pin_mux.c.obj
                0x0ffe0b5c                BOARD_InitPins
 .text.main     0x0ffe0bcc       0x4c CMakeFiles/freertos_hello.elf.dir/D_/IMX93/PROJECT/mcimx93evk_freertos_hello/freertos_hello.c.obj
                0x0ffe0bcc                main
 .text.hello_task
                0x0ffe0c18       0x1c CMakeFiles/freertos_hello.elf.dir/D_/IMX93/PROJECT/mcimx93evk_freertos_hello/freertos_hello.c.obj
 .text.CLOCK_SetRootClock
                0x0ffe0c34       0x7c CMakeFiles/freertos_hello.elf.dir/D_/IMX93/PROJECT/mcimx93evk_freertos_hello/board.c.obj
 .text.CLOCK_ControlGate
                0x0ffe0cb0       0x68 CMakeFiles/freertos_hello.elf.dir/D_/IMX93/PROJECT/mcimx93evk_freertos_hello/board.c.obj
 .text.CLOCK_EnableClock
                0x0ffe0d18       0x1c CMakeFiles/freertos_hello.elf.dir/D_/IMX93/PROJECT/mcimx93evk_freertos_hello/board.c.obj
 .text.BOARD_InitDebugConsole
                0x0ffe0d34       0x3e CMakeFiles/freertos_hello.elf.dir/D_/IMX93/PROJECT/mcimx93evk_freertos_hello/board.c.obj
                0x0ffe0d34                BOARD_InitDebugConsole
 *fill*         0x0ffe0d72        0x2 
 .text.CLOCK_PllInit
                0x0ffe0d74       0x94 CMakeFiles/freertos_hello.elf.dir/D_/IMX93/PROJECT/mcimx93evk_freertos_hello/clock_config.c.obj
 .text.BOARD_InitClock
                0x0ffe0e08       0x74 CMakeFiles/freertos_hello.elf.dir/D_/IMX93/PROJECT/mcimx93evk_freertos_hello/clock_config.c.obj
 .text.BOARD_BootClockRUN
                0x0ffe0e7c       0x1c CMakeFiles/freertos_hello.elf.dir/D_/IMX93/PROJECT/mcimx93evk_freertos_hello/clock_config.c.obj
                0x0ffe0e7c                BOARD_BootClockRUN
 .text.HAL_UartGetStatus
                0x0ffe0e98       0x28 CMakeFiles/freertos_hello.elf.dir/D_/PROJECT/XpressoSDK/SDK_2_14_0_MIMX9352xxxxK/components/uart/fsl_adapter_lpuart.c.obj
 .text.HAL_UartInitCommon
                0x0ffe0ec0       0xe0 CMakeFiles/freertos_hello.elf.dir/D_/PROJECT/XpressoSDK/SDK_2_14_0_MIMX9352xxxxK/components/uart/fsl_adapter_lpuart.c.obj
 .text.HAL_UartInit
                0x0ffe0fa0       0xac CMakeFiles/freertos_hello.elf.dir/D_/PROJECT/XpressoSDK/SDK_2_14_0_MIMX9352xxxxK/components/uart/fsl_adapter_lpuart.c.obj
                0x0ffe0fa0                HAL_UartInit
 .text.HAL_UartSendBlocking
                0x0ffe104c       0x84 CMakeFiles/freertos_hello.elf.dir/D_/PROJECT/XpressoSDK/SDK_2_14_0_MIMX9352xxxxK/components/uart/fsl_adapter_lpuart.c.obj
                0x0ffe104c                HAL_UartSendBlocking
 .text.DisableGlobalIRQ
                0x0ffe10d0       0x22 CMakeFiles/freertos_hello.elf.dir/D_/PROJECT/XpressoSDK/SDK_2_14_0_MIMX9352xxxxK/components/serial_manager/fsl_component_serial_manager.c.obj
 .text.EnableGlobalIRQ
                0x0ffe10f2       0x20 CMakeFiles/freertos_hello.elf.dir/D_/PROJECT/XpressoSDK/SDK_2_14_0_MIMX9352xxxxK/components/serial_manager/fsl_component_serial_manager.c.obj
 .text.SerialManager_StartWriting
                0x0ffe1112       0x38 CMakeFiles/freertos_hello.elf.dir/D_/PROJECT/XpressoSDK/SDK_2_14_0_MIMX9352xxxxK/components/serial_manager/fsl_component_serial_manager.c.obj
 .text.SerialManager_Write
                0x0ffe114a       0x44 CMakeFiles/freertos_hello.elf.dir/D_/PROJECT/XpressoSDK/SDK_2_14_0_MIMX9352xxxxK/components/serial_manager/fsl_component_serial_manager.c.obj
 .text.SerialManager_Init
                0x0ffe118e       0x60 CMakeFiles/freertos_hello.elf.dir/D_/PROJECT/XpressoSDK/SDK_2_14_0_MIMX9352xxxxK/components/serial_manager/fsl_component_serial_manager.c.obj
                0x0ffe118e                SerialManager_Init
 .text.SerialManager_OpenWriteHandle
                0x0ffe11ee       0x50 CMakeFiles/freertos_hello.elf.dir/D_/PROJECT/XpressoSDK/SDK_2_14_0_MIMX9352xxxxK/components/serial_manager/fsl_component_serial_manager.c.obj
                0x0ffe11ee                SerialManager_OpenWriteHandle
 .text.SerialManager_OpenReadHandle
                0x0ffe123e       0x60 CMakeFiles/freertos_hello.elf.dir/D_/PROJECT/XpressoSDK/SDK_2_14_0_MIMX9352xxxxK/components/serial_manager/fsl_component_serial_manager.c.obj
                0x0ffe123e                SerialManager_OpenReadHandle
 .text.SerialManager_WriteBlocking
                0x0ffe129e       0x20 CMakeFiles/freertos_hello.elf.dir/D_/PROJECT/XpressoSDK/SDK_2_14_0_MIMX9352xxxxK/components/serial_manager/fsl_component_serial_manager.c.obj
                0x0ffe129e                SerialManager_WriteBlocking
 .text.Serial_UartInit
                0x0ffe12be       0x3e CMakeFiles/freertos_hello.elf.dir/D_/PROJECT/XpressoSDK/SDK_2_14_0_MIMX9352xxxxK/components/serial_manager/fsl_component_serial_port_uart.c.obj
                0x0ffe12be                Serial_UartInit
 .text.Serial_UartWrite
                0x0ffe12fc       0x38 CMakeFiles/freertos_hello.elf.dir/D_/PROJECT/XpressoSDK/SDK_2_14_0_MIMX9352xxxxK/components/serial_manager/fsl_component_serial_port_uart.c.obj
                0x0ffe12fc                Serial_UartWrite
 .text.SystemInit
                0x0ffe1334       0x20 CMakeFiles/freertos_hello.elf.dir/D_/PROJECT/XpressoSDK/SDK_2_14_0_MIMX9352xxxxK/devices/MIMX9352/system_MIMX9352_cm33.c.obj
                0x0ffe1334                SystemInit
 .text.SystemInitHook
                0x0ffe1354        0xe CMakeFiles/freertos_hello.elf.dir/D_/PROJECT/XpressoSDK/SDK_2_14_0_MIMX9352xxxxK/devices/MIMX9352/system_MIMX9352_cm33.c.obj
                0x0ffe1354                SystemInitHook
 *fill*         0x0ffe1362        0x2 
 .text.CLOCK_GetRootClockMux
                0x0ffe1364       0x2c CMakeFiles/freertos_hello.elf.dir/D_/PROJECT/XpressoSDK/SDK_2_14_0_MIMX9352xxxxK/devices/MIMX9352/drivers/fsl_clock.c.obj
 .text.CLOCK_GetRootClockSource
                0x0ffe1390       0x2c CMakeFiles/freertos_hello.elf.dir/D_/PROJECT/XpressoSDK/SDK_2_14_0_MIMX9352xxxxK/devices/MIMX9352/drivers/fsl_clock.c.obj
 .text.CLOCK_GetRootClockDiv
                0x0ffe13bc       0x28 CMakeFiles/freertos_hello.elf.dir/D_/PROJECT/XpressoSDK/SDK_2_14_0_MIMX9352xxxxK/devices/MIMX9352/drivers/fsl_clock.c.obj
 .text.CLOCK_GetIpFreq
                0x0ffe13e4       0x64 CMakeFiles/freertos_hello.elf.dir/D_/PROJECT/XpressoSDK/SDK_2_14_0_MIMX9352xxxxK/devices/MIMX9352/drivers/fsl_clock.c.obj
                0x0ffe13e4                CLOCK_GetIpFreq
 .text.CLOCK_ControlGate
                0x0ffe1448       0x68 CMakeFiles/freertos_hello.elf.dir/D_/PROJECT/XpressoSDK/SDK_2_14_0_MIMX9352xxxxK/devices/MIMX9352/drivers/fsl_lpuart.c.obj
 .text.CLOCK_EnableClock
                0x0ffe14b0       0x1c CMakeFiles/freertos_hello.elf.dir/D_/PROJECT/XpressoSDK/SDK_2_14_0_MIMX9352xxxxK/devices/MIMX9352/drivers/fsl_lpuart.c.obj
 .text.LPUART_SoftwareReset
                0x0ffe14cc       0x2c CMakeFiles/freertos_hello.elf.dir/D_/PROJECT/XpressoSDK/SDK_2_14_0_MIMX9352xxxxK/devices/MIMX9352/drivers/fsl_lpuart.c.obj
 .text.LPUART_GetInstance
                0x0ffe14f8       0x58 CMakeFiles/freertos_hello.elf.dir/D_/PROJECT/XpressoSDK/SDK_2_14_0_MIMX9352xxxxK/devices/MIMX9352/drivers/fsl_lpuart.c.obj
                0x0ffe14f8                LPUART_GetInstance
 .text.LPUART_Init
                0x0ffe1550      0x348 CMakeFiles/freertos_hello.elf.dir/D_/PROJECT/XpressoSDK/SDK_2_14_0_MIMX9352xxxxK/devices/MIMX9352/drivers/fsl_lpuart.c.obj
                0x0ffe1550                LPUART_Init
 .text.LPUART_GetDefaultConfig
                0x0ffe1898       0x98 CMakeFiles/freertos_hello.elf.dir/D_/PROJECT/XpressoSDK/SDK_2_14_0_MIMX9352xxxxK/devices/MIMX9352/drivers/fsl_lpuart.c.obj
                0x0ffe1898                LPUART_GetDefaultConfig
 .text.LPUART_WriteBlocking
                0x0ffe1930       0x78 CMakeFiles/freertos_hello.elf.dir/D_/PROJECT/XpressoSDK/SDK_2_14_0_MIMX9352xxxxK/devices/MIMX9352/drivers/fsl_lpuart.c.obj
                0x0ffe1930                LPUART_WriteBlocking
 .text.LPUART1_DriverIRQHandler
                0x0ffe19a8       0x24 CMakeFiles/freertos_hello.elf.dir/D_/PROJECT/XpressoSDK/SDK_2_14_0_MIMX9352xxxxK/devices/MIMX9352/drivers/fsl_lpuart.c.obj
                0x0ffe19a8                LPUART1_DriverIRQHandler
 .text.LPUART2_DriverIRQHandler
                0x0ffe19cc       0x24 CMakeFiles/freertos_hello.elf.dir/D_/PROJECT/XpressoSDK/SDK_2_14_0_MIMX9352xxxxK/devices/MIMX9352/drivers/fsl_lpuart.c.obj
                0x0ffe19cc                LPUART2_DriverIRQHandler
 .text.LPUART3_DriverIRQHandler
                0x0ffe19f0       0x24 CMakeFiles/freertos_hello.elf.dir/D_/PROJECT/XpressoSDK/SDK_2_14_0_MIMX9352xxxxK/devices/MIMX9352/drivers/fsl_lpuart.c.obj
                0x0ffe19f0                LPUART3_DriverIRQHandler
 .text.LPUART4_DriverIRQHandler
                0x0ffe1a14       0x24 CMakeFiles/freertos_hello.elf.dir/D_/PROJECT/XpressoSDK/SDK_2_14_0_MIMX9352xxxxK/devices/MIMX9352/drivers/fsl_lpuart.c.obj
                0x0ffe1a14                LPUART4_DriverIRQHandler
 .text.LPUART5_DriverIRQHandler
                0x0ffe1a38       0x24 CMakeFiles/freertos_hello.elf.dir/D_/PROJECT/XpressoSDK/SDK_2_14_0_MIMX9352xxxxK/devices/MIMX9352/drivers/fsl_lpuart.c.obj
                0x0ffe1a38                LPUART5_DriverIRQHandler
 .text.LPUART6_DriverIRQHandler
                0x0ffe1a5c       0x24 CMakeFiles/freertos_hello.elf.dir/D_/PROJECT/XpressoSDK/SDK_2_14_0_MIMX9352xxxxK/devices/MIMX9352/drivers/fsl_lpuart.c.obj
                0x0ffe1a5c                LPUART6_DriverIRQHandler
 .text.LPUART7_DriverIRQHandler
                0x0ffe1a80       0x24 CMakeFiles/freertos_hello.elf.dir/D_/PROJECT/XpressoSDK/SDK_2_14_0_MIMX9352xxxxK/devices/MIMX9352/drivers/fsl_lpuart.c.obj
                0x0ffe1a80                LPUART7_DriverIRQHandler
 .text.LPUART8_DriverIRQHandler
                0x0ffe1aa4       0x24 CMakeFiles/freertos_hello.elf.dir/D_/PROJECT/XpressoSDK/SDK_2_14_0_MIMX9352xxxxK/devices/MIMX9352/drivers/fsl_lpuart.c.obj
                0x0ffe1aa4                LPUART8_DriverIRQHandler
 .text.vListInitialise
                0x0ffe1ac8       0x40 CMakeFiles/freertos_hello.elf.dir/D_/PROJECT/XpressoSDK/SDK_2_14_0_MIMX9352xxxxK/rtos/freertos/freertos-kernel/list.c.obj
                0x0ffe1ac8                vListInitialise
 .text.vListInitialiseItem
                0x0ffe1b08       0x1a CMakeFiles/freertos_hello.elf.dir/D_/PROJECT/XpressoSDK/SDK_2_14_0_MIMX9352xxxxK/rtos/freertos/freertos-kernel/list.c.obj
                0x0ffe1b08                vListInitialiseItem
 .text.vListInsertEnd
                0x0ffe1b22       0x48 CMakeFiles/freertos_hello.elf.dir/D_/PROJECT/XpressoSDK/SDK_2_14_0_MIMX9352xxxxK/rtos/freertos/freertos-kernel/list.c.obj
                0x0ffe1b22                vListInsertEnd
 .text.vListInsert
                0x0ffe1b6a       0x72 CMakeFiles/freertos_hello.elf.dir/D_/PROJECT/XpressoSDK/SDK_2_14_0_MIMX9352xxxxK/rtos/freertos/freertos-kernel/list.c.obj
                0x0ffe1b6a                vListInsert
 .text.uxListRemove
                0x0ffe1bdc       0x54 CMakeFiles/freertos_hello.elf.dir/D_/PROJECT/XpressoSDK/SDK_2_14_0_MIMX9352xxxxK/rtos/freertos/freertos-kernel/list.c.obj
                0x0ffe1bdc                uxListRemove
 .text.xQueueGenericReset
                0x0ffe1c30       0xf2 CMakeFiles/freertos_hello.elf.dir/D_/PROJECT/XpressoSDK/SDK_2_14_0_MIMX9352xxxxK/rtos/freertos/freertos-kernel/queue.c.obj
                0x0ffe1c30                xQueueGenericReset
 .text.xQueueGenericCreate
                0x0ffe1d22       0x8e CMakeFiles/freertos_hello.elf.dir/D_/PROJECT/XpressoSDK/SDK_2_14_0_MIMX9352xxxxK/rtos/freertos/freertos-kernel/queue.c.obj
                0x0ffe1d22                xQueueGenericCreate
 .text.prvInitialiseNewQueue
                0x0ffe1db0       0x46 CMakeFiles/freertos_hello.elf.dir/D_/PROJECT/XpressoSDK/SDK_2_14_0_MIMX9352xxxxK/rtos/freertos/freertos-kernel/queue.c.obj
 .text.xQueueReceive
                0x0ffe1df6      0x178 CMakeFiles/freertos_hello.elf.dir/D_/PROJECT/XpressoSDK/SDK_2_14_0_MIMX9352xxxxK/rtos/freertos/freertos-kernel/queue.c.obj
                0x0ffe1df6                xQueueReceive
 .text.prvCopyDataFromQueue
                0x0ffe1f6e       0x4c CMakeFiles/freertos_hello.elf.dir/D_/PROJECT/XpressoSDK/SDK_2_14_0_MIMX9352xxxxK/rtos/freertos/freertos-kernel/queue.c.obj
 .text.prvUnlockQueue
                0x0ffe1fba       0xa4 CMakeFiles/freertos_hello.elf.dir/D_/PROJECT/XpressoSDK/SDK_2_14_0_MIMX9352xxxxK/rtos/freertos/freertos-kernel/queue.c.obj
 .text.prvIsQueueEmpty
                0x0ffe205e       0x2c CMakeFiles/freertos_hello.elf.dir/D_/PROJECT/XpressoSDK/SDK_2_14_0_MIMX9352xxxxK/rtos/freertos/freertos-kernel/queue.c.obj
 *fill*         0x0ffe208a        0x2 
 .text.vQueueAddToRegistry
                0x0ffe208c       0x8c CMakeFiles/freertos_hello.elf.dir/D_/PROJECT/XpressoSDK/SDK_2_14_0_MIMX9352xxxxK/rtos/freertos/freertos-kernel/queue.c.obj
                0x0ffe208c                vQueueAddToRegistry
 .text.vQueueWaitForMessageRestricted
                0x0ffe2118       0x68 CMakeFiles/freertos_hello.elf.dir/D_/PROJECT/XpressoSDK/SDK_2_14_0_MIMX9352xxxxK/rtos/freertos/freertos-kernel/queue.c.obj
                0x0ffe2118                vQueueWaitForMessageRestricted
 .text.xTaskCreate
                0x0ffe2180       0x8a CMakeFiles/freertos_hello.elf.dir/D_/PROJECT/XpressoSDK/SDK_2_14_0_MIMX9352xxxxK/rtos/freertos/freertos-kernel/tasks.c.obj
                0x0ffe2180                xTaskCreate
 .text.prvInitialiseNewTask
                0x0ffe220a      0x10a CMakeFiles/freertos_hello.elf.dir/D_/PROJECT/XpressoSDK/SDK_2_14_0_MIMX9352xxxxK/rtos/freertos/freertos-kernel/tasks.c.obj
 .text.prvAddNewTaskToReadyList
                0x0ffe2314      0x120 CMakeFiles/freertos_hello.elf.dir/D_/PROJECT/XpressoSDK/SDK_2_14_0_MIMX9352xxxxK/rtos/freertos/freertos-kernel/tasks.c.obj
 .text.vTaskSuspend
                0x0ffe2434       0xe8 CMakeFiles/freertos_hello.elf.dir/D_/PROJECT/XpressoSDK/SDK_2_14_0_MIMX9352xxxxK/rtos/freertos/freertos-kernel/tasks.c.obj
                0x0ffe2434                vTaskSuspend
 .text.vTaskStartScheduler
                0x0ffe251c       0x84 CMakeFiles/freertos_hello.elf.dir/D_/PROJECT/XpressoSDK/SDK_2_14_0_MIMX9352xxxxK/rtos/freertos/freertos-kernel/tasks.c.obj
                0x0ffe251c                vTaskStartScheduler
 .text.vTaskSuspendAll
                0x0ffe25a0       0x1c CMakeFiles/freertos_hello.elf.dir/D_/PROJECT/XpressoSDK/SDK_2_14_0_MIMX9352xxxxK/rtos/freertos/freertos-kernel/tasks.c.obj
                0x0ffe25a0                vTaskSuspendAll
 .text.xTaskResumeAll
                0x0ffe25bc      0x1dc CMakeFiles/freertos_hello.elf.dir/D_/PROJECT/XpressoSDK/SDK_2_14_0_MIMX9352xxxxK/rtos/freertos/freertos-kernel/tasks.c.obj
                0x0ffe25bc                xTaskResumeAll
 .text.xTaskGetTickCount
                0x0ffe2798       0x20 CMakeFiles/freertos_hello.elf.dir/D_/PROJECT/XpressoSDK/SDK_2_14_0_MIMX9352xxxxK/rtos/freertos/freertos-kernel/tasks.c.obj
                0x0ffe2798                xTaskGetTickCount
 .text.xTaskIncrementTick
                0x0ffe27b8      0x204 CMakeFiles/freertos_hello.elf.dir/D_/PROJECT/XpressoSDK/SDK_2_14_0_MIMX9352xxxxK/rtos/freertos/freertos-kernel/tasks.c.obj
                0x0ffe27b8                xTaskIncrementTick
 .text.vTaskSwitchContext
                0x0ffe29bc       0xa8 CMakeFiles/freertos_hello.elf.dir/D_/PROJECT/XpressoSDK/SDK_2_14_0_MIMX9352xxxxK/rtos/freertos/freertos-kernel/tasks.c.obj
                0x0ffe29bc                vTaskSwitchContext
 .text.vTaskPlaceOnEventList
                0x0ffe2a64       0x3c CMakeFiles/freertos_hello.elf.dir/D_/PROJECT/XpressoSDK/SDK_2_14_0_MIMX9352xxxxK/rtos/freertos/freertos-kernel/tasks.c.obj
                0x0ffe2a64                vTaskPlaceOnEventList
 .text.vTaskPlaceOnEventListRestricted
                0x0ffe2aa0       0x7c CMakeFiles/freertos_hello.elf.dir/D_/PROJECT/XpressoSDK/SDK_2_14_0_MIMX9352xxxxK/rtos/freertos/freertos-kernel/tasks.c.obj
                0x0ffe2aa0                vTaskPlaceOnEventListRestricted
 .text.xTaskRemoveFromEventList
                0x0ffe2b1c      0x19c CMakeFiles/freertos_hello.elf.dir/D_/PROJECT/XpressoSDK/SDK_2_14_0_MIMX9352xxxxK/rtos/freertos/freertos-kernel/tasks.c.obj
                0x0ffe2b1c                xTaskRemoveFromEventList
 .text.vTaskInternalSetTimeOutState
                0x0ffe2cb8       0x2c CMakeFiles/freertos_hello.elf.dir/D_/PROJECT/XpressoSDK/SDK_2_14_0_MIMX9352xxxxK/rtos/freertos/freertos-kernel/tasks.c.obj
                0x0ffe2cb8                vTaskInternalSetTimeOutState
 .text.xTaskCheckForTimeOut
                0x0ffe2ce4       0xb0 CMakeFiles/freertos_hello.elf.dir/D_/PROJECT/XpressoSDK/SDK_2_14_0_MIMX9352xxxxK/rtos/freertos/freertos-kernel/tasks.c.obj
                0x0ffe2ce4                xTaskCheckForTimeOut
 .text.vTaskMissedYield
                0x0ffe2d94       0x18 CMakeFiles/freertos_hello.elf.dir/D_/PROJECT/XpressoSDK/SDK_2_14_0_MIMX9352xxxxK/rtos/freertos/freertos-kernel/tasks.c.obj
                0x0ffe2d94                vTaskMissedYield
 .text.prvIdleTask
                0x0ffe2dac       0x20 CMakeFiles/freertos_hello.elf.dir/D_/PROJECT/XpressoSDK/SDK_2_14_0_MIMX9352xxxxK/rtos/freertos/freertos-kernel/tasks.c.obj
 .text.prvInitialiseTaskLists
                0x0ffe2dcc       0x80 CMakeFiles/freertos_hello.elf.dir/D_/PROJECT/XpressoSDK/SDK_2_14_0_MIMX9352xxxxK/rtos/freertos/freertos-kernel/tasks.c.obj
 .text.prvCheckTasksWaitingTermination
                0x0ffe2e4c       0x5c CMakeFiles/freertos_hello.elf.dir/D_/PROJECT/XpressoSDK/SDK_2_14_0_MIMX9352xxxxK/rtos/freertos/freertos-kernel/tasks.c.obj
 .text.prvDeleteTCB
                0x0ffe2ea8       0x20 CMakeFiles/freertos_hello.elf.dir/D_/PROJECT/XpressoSDK/SDK_2_14_0_MIMX9352xxxxK/rtos/freertos/freertos-kernel/tasks.c.obj
 .text.prvResetNextTaskUnblockTime
                0x0ffe2ec8       0x38 CMakeFiles/freertos_hello.elf.dir/D_/PROJECT/XpressoSDK/SDK_2_14_0_MIMX9352xxxxK/rtos/freertos/freertos-kernel/tasks.c.obj
 .text.xTaskGetSchedulerState
                0x0ffe2f00       0x3c CMakeFiles/freertos_hello.elf.dir/D_/PROJECT/XpressoSDK/SDK_2_14_0_MIMX9352xxxxK/rtos/freertos/freertos-kernel/tasks.c.obj
                0x0ffe2f00                xTaskGetSchedulerState
 .text.prvAddCurrentTaskToDelayedList
                0x0ffe2f3c       0xdc CMakeFiles/freertos_hello.elf.dir/D_/PROJECT/XpressoSDK/SDK_2_14_0_MIMX9352xxxxK/rtos/freertos/freertos-kernel/tasks.c.obj
 .text.xTimerCreateTimerTask
                0x0ffe3018       0x54 CMakeFiles/freertos_hello.elf.dir/D_/PROJECT/XpressoSDK/SDK_2_14_0_MIMX9352xxxxK/rtos/freertos/freertos-kernel/timers.c.obj
                0x0ffe3018                xTimerCreateTimerTask
 .text.prvReloadTimer
                0x0ffe306c       0x42 CMakeFiles/freertos_hello.elf.dir/D_/PROJECT/XpressoSDK/SDK_2_14_0_MIMX9352xxxxK/rtos/freertos/freertos-kernel/timers.c.obj
 *fill*         0x0ffe30ae        0x2 
 .text.prvProcessExpiredTimer
                0x0ffe30b0       0x60 CMakeFiles/freertos_hello.elf.dir/D_/PROJECT/XpressoSDK/SDK_2_14_0_MIMX9352xxxxK/rtos/freertos/freertos-kernel/timers.c.obj
 .text.prvTimerTask
                0x0ffe3110       0x26 CMakeFiles/freertos_hello.elf.dir/D_/PROJECT/XpressoSDK/SDK_2_14_0_MIMX9352xxxxK/rtos/freertos/freertos-kernel/timers.c.obj
 *fill*         0x0ffe3136        0x2 
 .text.prvProcessTimerOrBlockTask
                0x0ffe3138       0x8c CMakeFiles/freertos_hello.elf.dir/D_/PROJECT/XpressoSDK/SDK_2_14_0_MIMX9352xxxxK/rtos/freertos/freertos-kernel/timers.c.obj
 .text.prvGetNextExpireTime
                0x0ffe31c4       0x48 CMakeFiles/freertos_hello.elf.dir/D_/PROJECT/XpressoSDK/SDK_2_14_0_MIMX9352xxxxK/rtos/freertos/freertos-kernel/timers.c.obj
 .text.prvSampleTimeNow
                0x0ffe320c       0x40 CMakeFiles/freertos_hello.elf.dir/D_/PROJECT/XpressoSDK/SDK_2_14_0_MIMX9352xxxxK/rtos/freertos/freertos-kernel/timers.c.obj
 .text.prvInsertTimerInActiveList
                0x0ffe324c       0x84 CMakeFiles/freertos_hello.elf.dir/D_/PROJECT/XpressoSDK/SDK_2_14_0_MIMX9352xxxxK/rtos/freertos/freertos-kernel/timers.c.obj
 .text.prvProcessReceivedCommands
                0x0ffe32d0      0x19c CMakeFiles/freertos_hello.elf.dir/D_/PROJECT/XpressoSDK/SDK_2_14_0_MIMX9352xxxxK/rtos/freertos/freertos-kernel/timers.c.obj
 .text.prvSwitchTimerLists
                0x0ffe346c       0x4c CMakeFiles/freertos_hello.elf.dir/D_/PROJECT/XpressoSDK/SDK_2_14_0_MIMX9352xxxxK/rtos/freertos/freertos-kernel/timers.c.obj
 .text.prvCheckForValidListAndQueue
                0x0ffe34b8       0x6c CMakeFiles/freertos_hello.elf.dir/D_/PROJECT/XpressoSDK/SDK_2_14_0_MIMX9352xxxxK/rtos/freertos/freertos-kernel/timers.c.obj
 .text.vPortSetupTimerInterrupt
                0x0ffe3524       0x48 CMakeFiles/freertos_hello.elf.dir/D_/PROJECT/XpressoSDK/SDK_2_14_0_MIMX9352xxxxK/rtos/freertos/freertos-kernel/portable/GCC/ARM_CM33_NTZ/non_secure/port.c.obj
                0x0ffe3524                vPortSetupTimerInterrupt
 .text.prvTaskExitError
                0x0ffe356c       0x38 CMakeFiles/freertos_hello.elf.dir/D_/PROJECT/XpressoSDK/SDK_2_14_0_MIMX9352xxxxK/rtos/freertos/freertos-kernel/portable/GCC/ARM_CM33_NTZ/non_secure/port.c.obj
 .text.prvSetupFPU
                0x0ffe35a4       0x30 CMakeFiles/freertos_hello.elf.dir/D_/PROJECT/XpressoSDK/SDK_2_14_0_MIMX9352xxxxK/rtos/freertos/freertos-kernel/portable/GCC/ARM_CM33_NTZ/non_secure/port.c.obj
 .text.vPortYield
                0x0ffe35d4       0x24 CMakeFiles/freertos_hello.elf.dir/D_/PROJECT/XpressoSDK/SDK_2_14_0_MIMX9352xxxxK/rtos/freertos/freertos-kernel/portable/GCC/ARM_CM33_NTZ/non_secure/port.c.obj
                0x0ffe35d4                vPortYield
 .text.vPortEnterCritical
                0x0ffe35f8       0x24 CMakeFiles/freertos_hello.elf.dir/D_/PROJECT/XpressoSDK/SDK_2_14_0_MIMX9352xxxxK/rtos/freertos/freertos-kernel/portable/GCC/ARM_CM33_NTZ/non_secure/port.c.obj
                0x0ffe35f8                vPortEnterCritical
 .text.vPortExitCritical
                0x0ffe361c       0x34 CMakeFiles/freertos_hello.elf.dir/D_/PROJECT/XpressoSDK/SDK_2_14_0_MIMX9352xxxxK/rtos/freertos/freertos-kernel/portable/GCC/ARM_CM33_NTZ/non_secure/port.c.obj
                0x0ffe361c                vPortExitCritical
 .text.SysTick_Handler
                0x0ffe3650       0x30 CMakeFiles/freertos_hello.elf.dir/D_/PROJECT/XpressoSDK/SDK_2_14_0_MIMX9352xxxxK/rtos/freertos/freertos-kernel/portable/GCC/ARM_CM33_NTZ/non_secure/port.c.obj
                0x0ffe3650                SysTick_Handler
 .text.vPortSVCHandler_C
                0x0ffe3680       0x36 CMakeFiles/freertos_hello.elf.dir/D_/PROJECT/XpressoSDK/SDK_2_14_0_MIMX9352xxxxK/rtos/freertos/freertos-kernel/portable/GCC/ARM_CM33_NTZ/non_secure/port.c.obj
                0x0ffe3680                vPortSVCHandler_C
 *fill*         0x0ffe36b6        0x2 
 .text.pxPortInitialiseStack
                0x0ffe36b8      0x114 CMakeFiles/freertos_hello.elf.dir/D_/PROJECT/XpressoSDK/SDK_2_14_0_MIMX9352xxxxK/rtos/freertos/freertos-kernel/portable/GCC/ARM_CM33_NTZ/non_secure/port.c.obj
                0x0ffe36b8                pxPortInitialiseStack
 .text.xPortStartScheduler
                0x0ffe37cc       0x40 CMakeFiles/freertos_hello.elf.dir/D_/PROJECT/XpressoSDK/SDK_2_14_0_MIMX9352xxxxK/rtos/freertos/freertos-kernel/portable/GCC/ARM_CM33_NTZ/non_secure/port.c.obj
                0x0ffe37cc                xPortStartScheduler
 *fill*         0x0ffe380c        0x4 
 .text.vRestoreContextOfFirstTask
                0x0ffe3810       0x38 CMakeFiles/freertos_hello.elf.dir/D_/PROJECT/XpressoSDK/SDK_2_14_0_MIMX9352xxxxK/rtos/freertos/freertos-kernel/portable/GCC/ARM_CM33_NTZ/non_secure/portasm.c.obj
                0x0ffe3810                vRestoreContextOfFirstTask
 *fill*         0x0ffe3848        0x8 
 .text.vStartFirstTask
                0x0ffe3850       0x28 CMakeFiles/freertos_hello.elf.dir/D_/PROJECT/XpressoSDK/SDK_2_14_0_MIMX9352xxxxK/rtos/freertos/freertos-kernel/portable/GCC/ARM_CM33_NTZ/non_secure/portasm.c.obj
                0x0ffe3850                vStartFirstTask
 .text.ulSetInterruptMask
                0x0ffe3878       0x1a CMakeFiles/freertos_hello.elf.dir/D_/PROJECT/XpressoSDK/SDK_2_14_0_MIMX9352xxxxK/rtos/freertos/freertos-kernel/portable/GCC/ARM_CM33_NTZ/non_secure/portasm.c.obj
                0x0ffe3878                ulSetInterruptMask
 .text.vClearInterruptMask
                0x0ffe3892       0x10 CMakeFiles/freertos_hello.elf.dir/D_/PROJECT/XpressoSDK/SDK_2_14_0_MIMX9352xxxxK/rtos/freertos/freertos-kernel/portable/GCC/ARM_CM33_NTZ/non_secure/portasm.c.obj
                0x0ffe3892                vClearInterruptMask
 *fill*         0x0ffe38a2        0xe 
 .text.PendSV_Handler
                0x0ffe38b0       0x68 CMakeFiles/freertos_hello.elf.dir/D_/PROJECT/XpressoSDK/SDK_2_14_0_MIMX9352xxxxK/rtos/freertos/freertos-kernel/portable/GCC/ARM_CM33_NTZ/non_secure/portasm.c.obj
                0x0ffe38b0                PendSV_Handler
 *fill*         0x0ffe3918        0x8 
 .text.SVC_Handler
                0x0ffe3920       0x28 CMakeFiles/freertos_hello.elf.dir/D_/PROJECT/XpressoSDK/SDK_2_14_0_MIMX9352xxxxK/rtos/freertos/freertos-kernel/portable/GCC/ARM_CM33_NTZ/non_secure/portasm.c.obj
                0x0ffe3920                SVC_Handler
 .text.pvPortMalloc
                0x0ffe3948      0x158 CMakeFiles/freertos_hello.elf.dir/D_/PROJECT/XpressoSDK/SDK_2_14_0_MIMX9352xxxxK/rtos/freertos/freertos-kernel/portable/MemMang/heap_4.c.obj
                0x0ffe3948                pvPortMalloc
 .text.vPortFree
                0x0ffe3aa0       0x94 CMakeFiles/freertos_hello.elf.dir/D_/PROJECT/XpressoSDK/SDK_2_14_0_MIMX9352xxxxK/rtos/freertos/freertos-kernel/portable/MemMang/heap_4.c.obj
                0x0ffe3aa0                vPortFree
 .text.prvHeapInit
                0x0ffe3b34       0xb8 CMakeFiles/freertos_hello.elf.dir/D_/PROJECT/XpressoSDK/SDK_2_14_0_MIMX9352xxxxK/rtos/freertos/freertos-kernel/portable/MemMang/heap_4.c.obj
 .text.prvInsertBlockIntoFreeList
                0x0ffe3bec       0xb4 CMakeFiles/freertos_hello.elf.dir/D_/PROJECT/XpressoSDK/SDK_2_14_0_MIMX9352xxxxK/rtos/freertos/freertos-kernel/portable/MemMang/heap_4.c.obj
 .text.__assert_func
                0x0ffe3ca0       0x28 CMakeFiles/freertos_hello.elf.dir/D_/PROJECT/XpressoSDK/SDK_2_14_0_MIMX9352xxxxK/devices/MIMX9352/utilities/fsl_assert.c.obj
                0x0ffe3ca0                __assert_func
 .text.PrintGetWidth
                0x0ffe3cc8       0x6a CMakeFiles/freertos_hello.elf.dir/D_/PROJECT/XpressoSDK/SDK_2_14_0_MIMX9352xxxxK/devices/MIMX9352/utilities/str/fsl_str.c.obj
 .text.PrintGetPrecision
                0x0ffe3d32       0x8c CMakeFiles/freertos_hello.elf.dir/D_/PROJECT/XpressoSDK/SDK_2_14_0_MIMX9352xxxxK/devices/MIMX9352/utilities/str/fsl_str.c.obj
 .text.PrintIsobpu
                0x0ffe3dbe       0x38 CMakeFiles/freertos_hello.elf.dir/D_/PROJECT/XpressoSDK/SDK_2_14_0_MIMX9352xxxxK/devices/MIMX9352/utilities/str/fsl_str.c.obj
 .text.PrintIsdi
                0x0ffe3df6       0x2c CMakeFiles/freertos_hello.elf.dir/D_/PROJECT/XpressoSDK/SDK_2_14_0_MIMX9352xxxxK/devices/MIMX9352/utilities/str/fsl_str.c.obj
 .text.PrintOutputdifFobpu
                0x0ffe3e22       0x44 CMakeFiles/freertos_hello.elf.dir/D_/PROJECT/XpressoSDK/SDK_2_14_0_MIMX9352xxxxK/devices/MIMX9352/utilities/str/fsl_str.c.obj
 .text.PrintOutputxX
                0x0ffe3e66       0x44 CMakeFiles/freertos_hello.elf.dir/D_/PROJECT/XpressoSDK/SDK_2_14_0_MIMX9352xxxxK/devices/MIMX9352/utilities/str/fsl_str.c.obj
 .text.PrintIsfF
                0x0ffe3eaa       0x2c CMakeFiles/freertos_hello.elf.dir/D_/PROJECT/XpressoSDK/SDK_2_14_0_MIMX9352xxxxK/devices/MIMX9352/utilities/str/fsl_str.c.obj
 .text.PrintIsxX
                0x0ffe3ed6       0x2c CMakeFiles/freertos_hello.elf.dir/D_/PROJECT/XpressoSDK/SDK_2_14_0_MIMX9352xxxxK/devices/MIMX9352/utilities/str/fsl_str.c.obj
 .text.PrintFilterLengthFlag
                0x0ffe3f02       0x3e CMakeFiles/freertos_hello.elf.dir/D_/PROJECT/XpressoSDK/SDK_2_14_0_MIMX9352xxxxK/devices/MIMX9352/utilities/str/fsl_str.c.obj
 .text.PrintGetRadixFromobpu
                0x0ffe3f40       0x40 CMakeFiles/freertos_hello.elf.dir/D_/PROJECT/XpressoSDK/SDK_2_14_0_MIMX9352xxxxK/devices/MIMX9352/utilities/str/fsl_str.c.obj
 .text.ConvertRadixNumToString
                0x0ffe3f80       0xc2 CMakeFiles/freertos_hello.elf.dir/D_/PROJECT/XpressoSDK/SDK_2_14_0_MIMX9352xxxxK/devices/MIMX9352/utilities/str/fsl_str.c.obj
 .text.StrFormatPrintf
                0x0ffe4042      0x2ac CMakeFiles/freertos_hello.elf.dir/D_/PROJECT/XpressoSDK/SDK_2_14_0_MIMX9352xxxxK/devices/MIMX9352/utilities/str/fsl_str.c.obj
                0x0ffe4042                StrFormatPrintf
 *fill*         0x0ffe42ee        0x2 
 .text.DbgConsole_SendDataReliable
                0x0ffe42f0       0x54 CMakeFiles/freertos_hello.elf.dir/D_/PROJECT/XpressoSDK/SDK_2_14_0_MIMX9352xxxxK/devices/MIMX9352/utilities/debug_console/fsl_debug_console.c.obj
                0x0ffe42f0                DbgConsole_SendDataReliable
 .text.DbgConsole_PrintCallback
                0x0ffe4344       0x66 CMakeFiles/freertos_hello.elf.dir/D_/PROJECT/XpressoSDK/SDK_2_14_0_MIMX9352xxxxK/devices/MIMX9352/utilities/debug_console/fsl_debug_console.c.obj
 *fill*         0x0ffe43aa        0x2 
 .text.DbgConsole_Init
                0x0ffe43ac      0x138 CMakeFiles/freertos_hello.elf.dir/D_/PROJECT/XpressoSDK/SDK_2_14_0_MIMX9352xxxxK/devices/MIMX9352/utilities/debug_console/fsl_debug_console.c.obj
                0x0ffe43ac                DbgConsole_Init
 .text.DbgConsole_Printf
                0x0ffe44e4       0x2c CMakeFiles/freertos_hello.elf.dir/D_/PROJECT/XpressoSDK/SDK_2_14_0_MIMX9352xxxxK/devices/MIMX9352/utilities/debug_console/fsl_debug_console.c.obj
                0x0ffe44e4                DbgConsole_Printf
 .text.DbgConsole_Vprintf
                0x0ffe4510       0x68 CMakeFiles/freertos_hello.elf.dir/D_/PROJECT/XpressoSDK/SDK_2_14_0_MIMX9352xxxxK/devices/MIMX9352/utilities/debug_console/fsl_debug_console.c.obj
                0x0ffe4510                DbgConsole_Vprintf
 .text.exit     0x0ffe4578       0x24 C:/Users/Admin/.mcuxpressotools/arm-gnu-toolchain-14.2.rel1-mingw-w64-x86_64-arm-none-eabi/bin/../lib/gcc/arm-none-eabi/14.2.1/thumb/v8-m.main+fp/hard\libc_nano.a(libc_a-exit.o)
                0x0ffe4578                exit
 .text.memset   0x0ffe459c       0x10 C:/Users/Admin/.mcuxpressotools/arm-gnu-toolchain-14.2.rel1-mingw-w64-x86_64-arm-none-eabi/bin/../lib/gcc/arm-none-eabi/14.2.1/thumb/v8-m.main+fp/hard\libc_nano.a(libc_a-memset.o)
                0x0ffe459c                memset
 .text.__libc_init_array
                0x0ffe45ac       0x48 C:/Users/Admin/.mcuxpressotools/arm-gnu-toolchain-14.2.rel1-mingw-w64-x86_64-arm-none-eabi/bin/../lib/gcc/arm-none-eabi/14.2.1/thumb/v8-m.main+fp/hard\libc_nano.a(libc_a-init.o)
                0x0ffe45ac                __libc_init_array
 .text._exit    0x0ffe45f4        0x2 C:/Users/Admin/.mcuxpressotools/arm-gnu-toolchain-14.2.rel1-mingw-w64-x86_64-arm-none-eabi/bin/../lib/gcc/arm-none-eabi/14.2.1/../../../../arm-none-eabi/lib/thumb/v8-m.main+fp/hard\libcr_newlib_nohost.a(_exit.o)
                0x0ffe45f4                _exit
                0x0ffe45f6                        __quickcodeaccess_start__ = .
                0x0ffe4600                        . = ALIGN (0x20)
 *fill*         0x0ffe45f6        0xa 
 *(CodeQuickAccess)
                0x0ffe4600                        . = ALIGN (0x20)
                0x0ffe4600                        __quickcodeaccess_end__ = .
 *(.rodata)
 .rodata        0x0ffe4600       0x37 CMakeFiles/freertos_hello.elf.dir/D_/IMX93/PROJECT/mcimx93evk_freertos_hello/freertos_hello.c.obj
 *fill*         0x0ffe4637        0x1 
 .rodata        0x0ffe4638       0x5c CMakeFiles/freertos_hello.elf.dir/D_/IMX93/PROJECT/mcimx93evk_freertos_hello/board.c.obj
 .rodata        0x0ffe4694      0x10c CMakeFiles/freertos_hello.elf.dir/D_/PROJECT/XpressoSDK/SDK_2_14_0_MIMX9352xxxxK/components/uart/fsl_adapter_lpuart.c.obj
 .rodata        0x0ffe47a0       0x68 CMakeFiles/freertos_hello.elf.dir/D_/PROJECT/XpressoSDK/SDK_2_14_0_MIMX9352xxxxK/devices/MIMX9352/drivers/fsl_clock.c.obj
 .rodata        0x0ffe4808      0x20e CMakeFiles/freertos_hello.elf.dir/D_/PROJECT/XpressoSDK/SDK_2_14_0_MIMX9352xxxxK/devices/MIMX9352/drivers/fsl_lpuart.c.obj
 *fill*         0x0ffe4a16        0x2 
 .rodata        0x0ffe4a18       0x30 CMakeFiles/freertos_hello.elf.dir/D_/PROJECT/XpressoSDK/SDK_2_14_0_MIMX9352xxxxK/rtos/freertos/freertos-kernel/tasks.c.obj
                0x0ffe4a2c                portArch_Name
                0x0ffe4a30                FreeRTOSDebugConfig
 .rodata        0x0ffe4a48        0xd CMakeFiles/freertos_hello.elf.dir/D_/PROJECT/XpressoSDK/SDK_2_14_0_MIMX9352xxxxK/rtos/freertos/freertos-kernel/timers.c.obj
 *fill*         0x0ffe4a55        0x3 
 .rodata        0x0ffe4a58       0x3e CMakeFiles/freertos_hello.elf.dir/D_/PROJECT/XpressoSDK/SDK_2_14_0_MIMX9352xxxxK/devices/MIMX9352/utilities/fsl_assert.c.obj
 *(.rodata*)
 *fill*         0x0ffe4a96        0x2 
 .rodata.__func__.0
                0x0ffe4a98       0x13 CMakeFiles/freertos_hello.elf.dir/D_/IMX93/PROJECT/mcimx93evk_freertos_hello/board.c.obj
 *fill*         0x0ffe4aab        0x1 
 .rodata.g_audioPllCfg
                0x0ffe4aac       0x14 CMakeFiles/freertos_hello.elf.dir/D_/IMX93/PROJECT/mcimx93evk_freertos_hello/clock_config.c.obj
                0x0ffe4aac                g_audioPllCfg
 .rodata.s_LpuartAdapterBase
                0x0ffe4ac0       0x24 CMakeFiles/freertos_hello.elf.dir/D_/PROJECT/XpressoSDK/SDK_2_14_0_MIMX9352xxxxK/components/uart/fsl_adapter_lpuart.c.obj
 .rodata.__func__.4
                0x0ffe4ae4        0xd CMakeFiles/freertos_hello.elf.dir/D_/PROJECT/XpressoSDK/SDK_2_14_0_MIMX9352xxxxK/components/uart/fsl_adapter_lpuart.c.obj
 *fill*         0x0ffe4af1        0x3 
 .rodata.__func__.1
                0x0ffe4af4       0x15 CMakeFiles/freertos_hello.elf.dir/D_/PROJECT/XpressoSDK/SDK_2_14_0_MIMX9352xxxxK/components/uart/fsl_adapter_lpuart.c.obj
 *fill*         0x0ffe4b09        0x3 
 .rodata.s_clockSourceName
                0x0ffe4b0c      0x17c CMakeFiles/freertos_hello.elf.dir/D_/PROJECT/XpressoSDK/SDK_2_14_0_MIMX9352xxxxK/devices/MIMX9352/drivers/fsl_clock.c.obj
 .rodata.__func__.0
                0x0ffe4c88       0x10 CMakeFiles/freertos_hello.elf.dir/D_/PROJECT/XpressoSDK/SDK_2_14_0_MIMX9352xxxxK/devices/MIMX9352/drivers/fsl_clock.c.obj
 .rodata.s_lpuartBases
                0x0ffe4c98       0x24 CMakeFiles/freertos_hello.elf.dir/D_/PROJECT/XpressoSDK/SDK_2_14_0_MIMX9352xxxxK/devices/MIMX9352/drivers/fsl_lpuart.c.obj
 .rodata.s_lpuartClock
                0x0ffe4cbc        0x9 CMakeFiles/freertos_hello.elf.dir/D_/PROJECT/XpressoSDK/SDK_2_14_0_MIMX9352xxxxK/devices/MIMX9352/drivers/fsl_lpuart.c.obj
 *fill*         0x0ffe4cc5        0x3 
 .rodata.__func__.21
                0x0ffe4cc8       0x13 CMakeFiles/freertos_hello.elf.dir/D_/PROJECT/XpressoSDK/SDK_2_14_0_MIMX9352xxxxK/devices/MIMX9352/drivers/fsl_lpuart.c.obj
 *fill*         0x0ffe4cdb        0x1 
 .rodata.__func__.16
                0x0ffe4cdc        0xc CMakeFiles/freertos_hello.elf.dir/D_/PROJECT/XpressoSDK/SDK_2_14_0_MIMX9352xxxxK/devices/MIMX9352/drivers/fsl_lpuart.c.obj
 .rodata.__func__.15
                0x0ffe4ce8       0x18 CMakeFiles/freertos_hello.elf.dir/D_/PROJECT/XpressoSDK/SDK_2_14_0_MIMX9352xxxxK/devices/MIMX9352/drivers/fsl_lpuart.c.obj
 .rodata.__func__.11
                0x0ffe4d00       0x15 CMakeFiles/freertos_hello.elf.dir/D_/PROJECT/XpressoSDK/SDK_2_14_0_MIMX9352xxxxK/devices/MIMX9352/drivers/fsl_lpuart.c.obj
 *fill*         0x0ffe4d15        0x3 
 .rodata.uxTopUsedPriority
                0x0ffe4d18        0x4 CMakeFiles/freertos_hello.elf.dir/D_/PROJECT/XpressoSDK/SDK_2_14_0_MIMX9352xxxxK/rtos/freertos/freertos-kernel/tasks.c.obj
                0x0ffe4d18                uxTopUsedPriority
 *(.glue_7)
 .glue_7        0x0ffe4d1c        0x0 linker stubs
 *(.glue_7t)
 .glue_7t       0x0ffe4d1c        0x0 linker stubs
 *(.eh_frame)
 .eh_frame      0x0ffe4d1c        0x0 C:/Users/Admin/.mcuxpressotools/arm-gnu-toolchain-14.2.rel1-mingw-w64-x86_64-arm-none-eabi/bin/../lib/gcc/arm-none-eabi/14.2.1/thumb/v8-m.main+fp/hard/crtbegin.o
 *(.init)
 .init          0x0ffe4d1c        0x4 C:/Users/Admin/.mcuxpressotools/arm-gnu-toolchain-14.2.rel1-mingw-w64-x86_64-arm-none-eabi/bin/../lib/gcc/arm-none-eabi/14.2.1/thumb/v8-m.main+fp/hard/crti.o
                0x0ffe4d1c                _init
 .init          0x0ffe4d20        0x8 C:/Users/Admin/.mcuxpressotools/arm-gnu-toolchain-14.2.rel1-mingw-w64-x86_64-arm-none-eabi/bin/../lib/gcc/arm-none-eabi/14.2.1/thumb/v8-m.main+fp/hard/crtn.o
 *(.fini)
 .fini          0x0ffe4d28        0x4 C:/Users/Admin/.mcuxpressotools/arm-gnu-toolchain-14.2.rel1-mingw-w64-x86_64-arm-none-eabi/bin/../lib/gcc/arm-none-eabi/14.2.1/thumb/v8-m.main+fp/hard/crti.o
                0x0ffe4d28                _fini
 .fini          0x0ffe4d2c        0x8 C:/Users/Admin/.mcuxpressotools/arm-gnu-toolchain-14.2.rel1-mingw-w64-x86_64-arm-none-eabi/bin/../lib/gcc/arm-none-eabi/14.2.1/thumb/v8-m.main+fp/hard/crtn.o
                0x0ffe4d34                        . = ALIGN (0x4)

.vfp11_veneer   0x0ffe4d34        0x0
 .vfp11_veneer  0x0ffe4d34        0x0 linker stubs

.v4_bx          0x0ffe4d34        0x0
 .v4_bx         0x0ffe4d34        0x0 linker stubs

.iplt           0x0ffe4d34        0x0
 .iplt          0x0ffe4d34        0x0 C:/Users/Admin/.mcuxpressotools/arm-gnu-toolchain-14.2.rel1-mingw-w64-x86_64-arm-none-eabi/bin/../lib/gcc/arm-none-eabi/14.2.1/thumb/v8-m.main+fp/hard/crtbegin.o

.ARM.extab
 *(.ARM.extab* .gnu.linkonce.armextab.*)

.ARM            0x0ffe4d34        0x8
                0x0ffe4d34                        __exidx_start = .
 *(.ARM.exidx*)
 .ARM.exidx     0x0ffe4d34        0x8 C:/Users/Admin/.mcuxpressotools/arm-gnu-toolchain-14.2.rel1-mingw-w64-x86_64-arm-none-eabi/bin/../lib/gcc/arm-none-eabi/14.2.1/thumb/v8-m.main+fp/hard/crt0.o
                                 0x10 (size before relaxing)
 .ARM.exidx     0x0ffe4d3c        0x0 C:/Users/Admin/.mcuxpressotools/arm-gnu-toolchain-14.2.rel1-mingw-w64-x86_64-arm-none-eabi/bin/../lib/gcc/arm-none-eabi/14.2.1/thumb/v8-m.main+fp/hard\libc_nano.a(libc_a-strlen.o)
                                  0x8 (size before relaxing)
                0x0ffe4d3c                        __exidx_end = .

.rel.dyn        0x0ffe4d3c        0x0
 .rel.iplt      0x0ffe4d3c        0x0 C:/Users/Admin/.mcuxpressotools/arm-gnu-toolchain-14.2.rel1-mingw-w64-x86_64-arm-none-eabi/bin/../lib/gcc/arm-none-eabi/14.2.1/thumb/v8-m.main+fp/hard/crtbegin.o

.ctors          0x0ffe4d3c        0x0
                0x0ffe4d3c                        __CTOR_LIST__ = .
 *crtbegin.o(.ctors)
 *crtbegin?.o(.ctors)
 *(EXCLUDE_FILE(*crtend.o *crtend?.o) .ctors)
 *(SORT_BY_NAME(.ctors.*))
 *(.ctors)
                0x0ffe4d3c                        __CTOR_END__ = .

.dtors          0x0ffe4d3c        0x0
                0x0ffe4d3c                        __DTOR_LIST__ = .
 *crtbegin.o(.dtors)
 *crtbegin?.o(.dtors)
 *(EXCLUDE_FILE(*crtend.o *crtend?.o) .dtors)
 *(SORT_BY_NAME(.dtors.*))
 *(.dtors)
                0x0ffe4d3c                        __DTOR_END__ = .

.preinit_array  0x0ffe4d3c        0x0
                0x0ffe4d3c                        PROVIDE (__preinit_array_start = .)
 *(.preinit_array*)
                0x0ffe4d3c                        PROVIDE (__preinit_array_end = .)

.init_array     0x0ffe4d3c        0x4
                0x0ffe4d3c                        PROVIDE (__init_array_start = .)
 *(SORT_BY_NAME(.init_array.*))
 *(.init_array*)
 .init_array    0x0ffe4d3c        0x4 C:/Users/Admin/.mcuxpressotools/arm-gnu-toolchain-14.2.rel1-mingw-w64-x86_64-arm-none-eabi/bin/../lib/gcc/arm-none-eabi/14.2.1/thumb/v8-m.main+fp/hard/crtbegin.o
                0x0ffe4d40                        PROVIDE (__init_array_end = .)

.fini_array     0x0ffe4d40        0x4
                [!provide]                        PROVIDE (__fini_array_start = .)
 *(SORT_BY_NAME(.fini_array.*))
 *(.fini_array*)
 .fini_array    0x0ffe4d40        0x4 C:/Users/Admin/.mcuxpressotools/arm-gnu-toolchain-14.2.rel1-mingw-w64-x86_64-arm-none-eabi/bin/../lib/gcc/arm-none-eabi/14.2.1/thumb/v8-m.main+fp/hard/crtbegin.o
                [!provide]                        PROVIDE (__fini_array_end = .)
                0x0ffe4d44                        __etext = .
                0x0ffe4d44                        __DATA_ROM = .

.interrupts_ram
                0x20003000        0x0
                0x20003000                        . = ALIGN (0x4)
                0x20003000                        __VECTOR_RAM__ = .
                0x20003000                        __interrupts_ram_start__ = .
 *(.m_interrupts_ram)
                0x20003000                        . = (. + M_VECTOR_RAM_SIZE)
                0x20003000                        . = ALIGN (0x4)
                0x20003000                        __interrupts_ram_end__ = .
                0x0ffe0000                        __VECTOR_RAM = DEFINED (__ram_vector_table__)?__VECTOR_RAM__:ORIGIN (m_interrupts)
                0x00000000                        __RAM_VECTOR_TABLE_SIZE_BYTES = DEFINED (__ram_vector_table__)?(__interrupts_ram_end__ - __interrupts_ram_start__):0x0

.data           0x20003000        0x8 load address 0x0ffe4d44
                0x20003000                        . = ALIGN (0x4)
                0x20003000                        __DATA_RAM = .
                0x20003000                        __data_start__ = .
                0x20003000                        __quickdataaccess_start__ = .
                0x20003000                        . = ALIGN (0x20)
 *(DataQuickAccess)
                0x20003000                        . = ALIGN (0x20)
                0x20003000                        __quickdataaccess_end__ = .
 *(.data)
 *(.data*)
 .data.SystemCoreClock
                0x20003000        0x4 CMakeFiles/freertos_hello.elf.dir/D_/PROJECT/XpressoSDK/SDK_2_14_0_MIMX9352xxxxK/devices/MIMX9352/system_MIMX9352_cm33.c.obj
                0x20003000                SystemCoreClock
 .data.ulCriticalNesting
                0x20003004        0x4 CMakeFiles/freertos_hello.elf.dir/D_/PROJECT/XpressoSDK/SDK_2_14_0_MIMX9352xxxxK/rtos/freertos/freertos-kernel/portable/GCC/ARM_CM33_NTZ/non_secure/port.c.obj
 *(.jcr*)
                0x20003008                        . = ALIGN (0x4)
                0x20003008                        __data_end__ = .
                0x0ffe4d4c                        __DATA_END = (__DATA_ROM + (__data_end__ - __data_start__))
                0x10000000                        text_end = (ORIGIN (m_text) + LENGTH (m_text))
                0x00000001                        ASSERT ((__DATA_END <= text_end), region m_text overflowed with text and data)

.tm_clone_table
                0x20003008        0x0 load address 0x0ffe4d4c
 .tm_clone_table
                0x20003008        0x0 C:/Users/Admin/.mcuxpressotools/arm-gnu-toolchain-14.2.rel1-mingw-w64-x86_64-arm-none-eabi/bin/../lib/gcc/arm-none-eabi/14.2.1/thumb/v8-m.main+fp/hard/crtbegin.o
 .tm_clone_table
                0x20003008        0x0 C:/Users/Admin/.mcuxpressotools/arm-gnu-toolchain-14.2.rel1-mingw-w64-x86_64-arm-none-eabi/bin/../lib/gcc/arm-none-eabi/14.2.1/thumb/v8-m.main+fp/hard/crtend.o

.igot.plt       0x20003008        0x0 load address 0x0ffe4d4c
 .igot.plt      0x20003008        0x0 C:/Users/Admin/.mcuxpressotools/arm-gnu-toolchain-14.2.rel1-mingw-w64-x86_64-arm-none-eabi/bin/../lib/gcc/arm-none-eabi/14.2.1/thumb/v8-m.main+fp/hard/crtbegin.o

.bss            0x20003008     0x2a70 load address 0x0ffe4d4c
                0x20003008                        . = ALIGN (0x4)
                0x20003008                        __START_BSS = .
                0x20003008                        __bss_start__ = .
 *(.bss)
 *(.bss*)
 .bss.completed.1
                0x20003008        0x1 C:/Users/Admin/.mcuxpressotools/arm-gnu-toolchain-14.2.rel1-mingw-w64-x86_64-arm-none-eabi/bin/../lib/gcc/arm-none-eabi/14.2.1/thumb/v8-m.main+fp/hard/crtbegin.o
 *fill*         0x20003009        0x3 
 .bss.object.0  0x2000300c       0x18 C:/Users/Admin/.mcuxpressotools/arm-gnu-toolchain-14.2.rel1-mingw-w64-x86_64-arm-none-eabi/bin/../lib/gcc/arm-none-eabi/14.2.1/thumb/v8-m.main+fp/hard/crtbegin.o
 .bss.g_clockSourceFreq
                0x20003024       0x44 CMakeFiles/freertos_hello.elf.dir/D_/PROJECT/XpressoSDK/SDK_2_14_0_MIMX9352xxxxK/devices/MIMX9352/drivers/fsl_clock.c.obj
                0x20003024                g_clockSourceFreq
 .bss.s_lpuartHandle
                0x20003068       0x24 CMakeFiles/freertos_hello.elf.dir/D_/PROJECT/XpressoSDK/SDK_2_14_0_MIMX9352xxxxK/devices/MIMX9352/drivers/fsl_lpuart.c.obj
                0x20003068                s_lpuartHandle
 .bss.s_lpuartIsr
                0x2000308c       0x24 CMakeFiles/freertos_hello.elf.dir/D_/PROJECT/XpressoSDK/SDK_2_14_0_MIMX9352xxxxK/devices/MIMX9352/drivers/fsl_lpuart.c.obj
                0x2000308c                s_lpuartIsr
 .bss.xQueueRegistry
                0x200030b0       0x40 CMakeFiles/freertos_hello.elf.dir/D_/PROJECT/XpressoSDK/SDK_2_14_0_MIMX9352xxxxK/rtos/freertos/freertos-kernel/queue.c.obj
                0x200030b0                xQueueRegistry
 .bss.pxCurrentTCB
                0x200030f0        0x4 CMakeFiles/freertos_hello.elf.dir/D_/PROJECT/XpressoSDK/SDK_2_14_0_MIMX9352xxxxK/rtos/freertos/freertos-kernel/tasks.c.obj
                0x200030f0                pxCurrentTCB
 .bss.pxReadyTasksLists
                0x200030f4       0x64 CMakeFiles/freertos_hello.elf.dir/D_/PROJECT/XpressoSDK/SDK_2_14_0_MIMX9352xxxxK/rtos/freertos/freertos-kernel/tasks.c.obj
 .bss.xDelayedTaskList1
                0x20003158       0x14 CMakeFiles/freertos_hello.elf.dir/D_/PROJECT/XpressoSDK/SDK_2_14_0_MIMX9352xxxxK/rtos/freertos/freertos-kernel/tasks.c.obj
 .bss.xDelayedTaskList2
                0x2000316c       0x14 CMakeFiles/freertos_hello.elf.dir/D_/PROJECT/XpressoSDK/SDK_2_14_0_MIMX9352xxxxK/rtos/freertos/freertos-kernel/tasks.c.obj
 .bss.pxDelayedTaskList
                0x20003180        0x4 CMakeFiles/freertos_hello.elf.dir/D_/PROJECT/XpressoSDK/SDK_2_14_0_MIMX9352xxxxK/rtos/freertos/freertos-kernel/tasks.c.obj
 .bss.pxOverflowDelayedTaskList
                0x20003184        0x4 CMakeFiles/freertos_hello.elf.dir/D_/PROJECT/XpressoSDK/SDK_2_14_0_MIMX9352xxxxK/rtos/freertos/freertos-kernel/tasks.c.obj
 .bss.xPendingReadyList
                0x20003188       0x14 CMakeFiles/freertos_hello.elf.dir/D_/PROJECT/XpressoSDK/SDK_2_14_0_MIMX9352xxxxK/rtos/freertos/freertos-kernel/tasks.c.obj
 .bss.xTasksWaitingTermination
                0x2000319c       0x14 CMakeFiles/freertos_hello.elf.dir/D_/PROJECT/XpressoSDK/SDK_2_14_0_MIMX9352xxxxK/rtos/freertos/freertos-kernel/tasks.c.obj
 .bss.uxDeletedTasksWaitingCleanUp
                0x200031b0        0x4 CMakeFiles/freertos_hello.elf.dir/D_/PROJECT/XpressoSDK/SDK_2_14_0_MIMX9352xxxxK/rtos/freertos/freertos-kernel/tasks.c.obj
 .bss.xSuspendedTaskList
                0x200031b4       0x14 CMakeFiles/freertos_hello.elf.dir/D_/PROJECT/XpressoSDK/SDK_2_14_0_MIMX9352xxxxK/rtos/freertos/freertos-kernel/tasks.c.obj
 .bss.uxCurrentNumberOfTasks
                0x200031c8        0x4 CMakeFiles/freertos_hello.elf.dir/D_/PROJECT/XpressoSDK/SDK_2_14_0_MIMX9352xxxxK/rtos/freertos/freertos-kernel/tasks.c.obj
 .bss.xTickCount
                0x200031cc        0x4 CMakeFiles/freertos_hello.elf.dir/D_/PROJECT/XpressoSDK/SDK_2_14_0_MIMX9352xxxxK/rtos/freertos/freertos-kernel/tasks.c.obj
 .bss.uxTopReadyPriority
                0x200031d0        0x4 CMakeFiles/freertos_hello.elf.dir/D_/PROJECT/XpressoSDK/SDK_2_14_0_MIMX9352xxxxK/rtos/freertos/freertos-kernel/tasks.c.obj
 .bss.xSchedulerRunning
                0x200031d4        0x4 CMakeFiles/freertos_hello.elf.dir/D_/PROJECT/XpressoSDK/SDK_2_14_0_MIMX9352xxxxK/rtos/freertos/freertos-kernel/tasks.c.obj
 .bss.xPendedTicks
                0x200031d8        0x4 CMakeFiles/freertos_hello.elf.dir/D_/PROJECT/XpressoSDK/SDK_2_14_0_MIMX9352xxxxK/rtos/freertos/freertos-kernel/tasks.c.obj
 .bss.xYieldPending
                0x200031dc        0x4 CMakeFiles/freertos_hello.elf.dir/D_/PROJECT/XpressoSDK/SDK_2_14_0_MIMX9352xxxxK/rtos/freertos/freertos-kernel/tasks.c.obj
 .bss.xNumOfOverflows
                0x200031e0        0x4 CMakeFiles/freertos_hello.elf.dir/D_/PROJECT/XpressoSDK/SDK_2_14_0_MIMX9352xxxxK/rtos/freertos/freertos-kernel/tasks.c.obj
 .bss.uxTaskNumber
                0x200031e4        0x4 CMakeFiles/freertos_hello.elf.dir/D_/PROJECT/XpressoSDK/SDK_2_14_0_MIMX9352xxxxK/rtos/freertos/freertos-kernel/tasks.c.obj
 .bss.xNextTaskUnblockTime
                0x200031e8        0x4 CMakeFiles/freertos_hello.elf.dir/D_/PROJECT/XpressoSDK/SDK_2_14_0_MIMX9352xxxxK/rtos/freertos/freertos-kernel/tasks.c.obj
 .bss.xIdleTaskHandle
                0x200031ec        0x4 CMakeFiles/freertos_hello.elf.dir/D_/PROJECT/XpressoSDK/SDK_2_14_0_MIMX9352xxxxK/rtos/freertos/freertos-kernel/tasks.c.obj
 .bss.uxSchedulerSuspended
                0x200031f0        0x4 CMakeFiles/freertos_hello.elf.dir/D_/PROJECT/XpressoSDK/SDK_2_14_0_MIMX9352xxxxK/rtos/freertos/freertos-kernel/tasks.c.obj
 .bss.xActiveTimerList1
                0x200031f4       0x14 CMakeFiles/freertos_hello.elf.dir/D_/PROJECT/XpressoSDK/SDK_2_14_0_MIMX9352xxxxK/rtos/freertos/freertos-kernel/timers.c.obj
 .bss.xActiveTimerList2
                0x20003208       0x14 CMakeFiles/freertos_hello.elf.dir/D_/PROJECT/XpressoSDK/SDK_2_14_0_MIMX9352xxxxK/rtos/freertos/freertos-kernel/timers.c.obj
 .bss.pxCurrentTimerList
                0x2000321c        0x4 CMakeFiles/freertos_hello.elf.dir/D_/PROJECT/XpressoSDK/SDK_2_14_0_MIMX9352xxxxK/rtos/freertos/freertos-kernel/timers.c.obj
 .bss.pxOverflowTimerList
                0x20003220        0x4 CMakeFiles/freertos_hello.elf.dir/D_/PROJECT/XpressoSDK/SDK_2_14_0_MIMX9352xxxxK/rtos/freertos/freertos-kernel/timers.c.obj
 .bss.xTimerQueue
                0x20003224        0x4 CMakeFiles/freertos_hello.elf.dir/D_/PROJECT/XpressoSDK/SDK_2_14_0_MIMX9352xxxxK/rtos/freertos/freertos-kernel/timers.c.obj
 .bss.xTimerTaskHandle
                0x20003228        0x4 CMakeFiles/freertos_hello.elf.dir/D_/PROJECT/XpressoSDK/SDK_2_14_0_MIMX9352xxxxK/rtos/freertos/freertos-kernel/timers.c.obj
 .bss.xLastTime.0
                0x2000322c        0x4 CMakeFiles/freertos_hello.elf.dir/D_/PROJECT/XpressoSDK/SDK_2_14_0_MIMX9352xxxxK/rtos/freertos/freertos-kernel/timers.c.obj
 .bss.ucHeap    0x20003230     0x2800 CMakeFiles/freertos_hello.elf.dir/D_/PROJECT/XpressoSDK/SDK_2_14_0_MIMX9352xxxxK/rtos/freertos/freertos-kernel/portable/MemMang/heap_4.c.obj
 .bss.xStart    0x20005a30        0x8 CMakeFiles/freertos_hello.elf.dir/D_/PROJECT/XpressoSDK/SDK_2_14_0_MIMX9352xxxxK/rtos/freertos/freertos-kernel/portable/MemMang/heap_4.c.obj
 .bss.pxEnd     0x20005a38        0x4 CMakeFiles/freertos_hello.elf.dir/D_/PROJECT/XpressoSDK/SDK_2_14_0_MIMX9352xxxxK/rtos/freertos/freertos-kernel/portable/MemMang/heap_4.c.obj
 .bss.xFreeBytesRemaining
                0x20005a3c        0x4 CMakeFiles/freertos_hello.elf.dir/D_/PROJECT/XpressoSDK/SDK_2_14_0_MIMX9352xxxxK/rtos/freertos/freertos-kernel/portable/MemMang/heap_4.c.obj
 .bss.xMinimumEverFreeBytesRemaining
                0x20005a40        0x4 CMakeFiles/freertos_hello.elf.dir/D_/PROJECT/XpressoSDK/SDK_2_14_0_MIMX9352xxxxK/rtos/freertos/freertos-kernel/portable/MemMang/heap_4.c.obj
 .bss.xNumberOfSuccessfulAllocations
                0x20005a44        0x4 CMakeFiles/freertos_hello.elf.dir/D_/PROJECT/XpressoSDK/SDK_2_14_0_MIMX9352xxxxK/rtos/freertos/freertos-kernel/portable/MemMang/heap_4.c.obj
 .bss.xNumberOfSuccessfulFrees
                0x20005a48        0x4 CMakeFiles/freertos_hello.elf.dir/D_/PROJECT/XpressoSDK/SDK_2_14_0_MIMX9352xxxxK/rtos/freertos/freertos-kernel/portable/MemMang/heap_4.c.obj
 .bss.s_debugConsoleReadWaitSemaphore
                0x20005a4c        0x1 CMakeFiles/freertos_hello.elf.dir/D_/PROJECT/XpressoSDK/SDK_2_14_0_MIMX9352xxxxK/devices/MIMX9352/utilities/debug_console/fsl_debug_console.c.obj
 *fill*         0x20005a4d        0x3 
 .bss.s_debugConsoleState
                0x20005a50       0x20 CMakeFiles/freertos_hello.elf.dir/D_/PROJECT/XpressoSDK/SDK_2_14_0_MIMX9352xxxxK/devices/MIMX9352/utilities/debug_console/fsl_debug_console.c.obj
 .bss.g_serialHandle
                0x20005a70        0x4 CMakeFiles/freertos_hello.elf.dir/D_/PROJECT/XpressoSDK/SDK_2_14_0_MIMX9352xxxxK/devices/MIMX9352/utilities/debug_console/fsl_debug_console.c.obj
                0x20005a70                g_serialHandle
 .bss.__stdio_exit_handler
                0x20005a74        0x4 C:/Users/Admin/.mcuxpressotools/arm-gnu-toolchain-14.2.rel1-mingw-w64-x86_64-arm-none-eabi/bin/../lib/gcc/arm-none-eabi/14.2.1/thumb/v8-m.main+fp/hard\libc_nano.a(libc_a-findfp.o)
                0x20005a74                __stdio_exit_handler
 *(COMMON)
                0x20005a78                        . = ALIGN (0x4)
                0x20005a78                        __bss_end__ = .
                0x20005a78                        __END_BSS = .

.m33_suspend    0x20000000        0x0
 *(M33SuspendRam)
                0x20000000                        . = ALIGN (0x4)

.heap           0x20005a78      0x400 load address 0x0ffe77bc
                0x20005a78                        . = ALIGN (0x8)
                0x20005a78                        __end__ = .
                0x20005a78                        PROVIDE (end = .)
                0x20005a78                        __HeapBase = .
                0x20005e78                        . = (. + HEAP_SIZE)
 *fill*         0x20005a78      0x400 
                0x20005e78                        __HeapLimit = .
                0x20005e78                        __heap_limit = .

.stack          0x20005e78      0x400 load address 0x0ffe7bbc
                0x20005e78                        . = ALIGN (0x8)
                0x20006278                        . = (. + STACK_SIZE)
 *fill*         0x20005e78      0x400 
                0x2001f000                        __StackTop = (ORIGIN (m_data) + LENGTH (m_data))
                0x2001ec00                        __StackLimit = (__StackTop - STACK_SIZE)
                0x2001f000                        PROVIDE (__stack = __StackTop)
                0x2001f000                        __RscTblStart = ORIGIN (m_rsc_tbl)
                0x20020000                        __RscTblEnd = (ORIGIN (m_rsc_tbl) + LENGTH (m_rsc_tbl))

.ARM.attributes
                0x00000000       0x36
 *(.ARM.attributes)
 .ARM.attributes
                0x00000000       0x26 C:/Users/Admin/.mcuxpressotools/arm-gnu-toolchain-14.2.rel1-mingw-w64-x86_64-arm-none-eabi/bin/../lib/gcc/arm-none-eabi/14.2.1/thumb/v8-m.main+fp/hard/crti.o
 .ARM.attributes
                0x00000026       0x38 C:/Users/Admin/.mcuxpressotools/arm-gnu-toolchain-14.2.rel1-mingw-w64-x86_64-arm-none-eabi/bin/../lib/gcc/arm-none-eabi/14.2.1/thumb/v8-m.main+fp/hard/crtbegin.o
 .ARM.attributes
                0x0000005e       0x24 C:/Users/Admin/.mcuxpressotools/arm-gnu-toolchain-14.2.rel1-mingw-w64-x86_64-arm-none-eabi/bin/../lib/gcc/arm-none-eabi/14.2.1/thumb/v8-m.main+fp/hard/crt0.o
 .ARM.attributes
                0x00000082       0x3a CMakeFiles/freertos_hello.elf.dir/D_/IMX93/PROJECT/mcimx93evk_freertos_hello/pin_mux.c.obj
 .ARM.attributes
                0x000000bc       0x3a CMakeFiles/freertos_hello.elf.dir/D_/IMX93/PROJECT/mcimx93evk_freertos_hello/freertos_hello.c.obj
 .ARM.attributes
                0x000000f6       0x3a CMakeFiles/freertos_hello.elf.dir/D_/IMX93/PROJECT/mcimx93evk_freertos_hello/board.c.obj
 .ARM.attributes
                0x00000130       0x3a CMakeFiles/freertos_hello.elf.dir/D_/IMX93/PROJECT/mcimx93evk_freertos_hello/clock_config.c.obj
 .ARM.attributes
                0x0000016a       0x3a CMakeFiles/freertos_hello.elf.dir/D_/PROJECT/XpressoSDK/SDK_2_14_0_MIMX9352xxxxK/components/uart/fsl_adapter_lpuart.c.obj
 .ARM.attributes
                0x000001a4       0x3a CMakeFiles/freertos_hello.elf.dir/D_/PROJECT/XpressoSDK/SDK_2_14_0_MIMX9352xxxxK/components/serial_manager/fsl_component_serial_manager.c.obj
 .ARM.attributes
                0x000001de       0x3a CMakeFiles/freertos_hello.elf.dir/D_/PROJECT/XpressoSDK/SDK_2_14_0_MIMX9352xxxxK/components/serial_manager/fsl_component_serial_port_uart.c.obj
 .ARM.attributes
                0x00000218       0x3a CMakeFiles/freertos_hello.elf.dir/D_/PROJECT/XpressoSDK/SDK_2_14_0_MIMX9352xxxxK/devices/MIMX9352/system_MIMX9352_cm33.c.obj
 .ARM.attributes
                0x00000252       0x24 CMakeFiles/freertos_hello.elf.dir/D_/PROJECT/XpressoSDK/SDK_2_14_0_MIMX9352xxxxK/devices/MIMX9352/gcc/startup_MIMX9352_cm33.S.obj
 .ARM.attributes
                0x00000276       0x3a CMakeFiles/freertos_hello.elf.dir/D_/PROJECT/XpressoSDK/SDK_2_14_0_MIMX9352xxxxK/devices/MIMX9352/drivers/fsl_clock.c.obj
 .ARM.attributes
                0x000002b0       0x3a CMakeFiles/freertos_hello.elf.dir/D_/PROJECT/XpressoSDK/SDK_2_14_0_MIMX9352xxxxK/devices/MIMX9352/drivers/fsl_lpuart.c.obj
 .ARM.attributes
                0x000002ea       0x3a CMakeFiles/freertos_hello.elf.dir/D_/PROJECT/XpressoSDK/SDK_2_14_0_MIMX9352xxxxK/rtos/freertos/freertos-kernel/list.c.obj
 .ARM.attributes
                0x00000324       0x3a CMakeFiles/freertos_hello.elf.dir/D_/PROJECT/XpressoSDK/SDK_2_14_0_MIMX9352xxxxK/rtos/freertos/freertos-kernel/queue.c.obj
 .ARM.attributes
                0x0000035e       0x3a CMakeFiles/freertos_hello.elf.dir/D_/PROJECT/XpressoSDK/SDK_2_14_0_MIMX9352xxxxK/rtos/freertos/freertos-kernel/tasks.c.obj
 .ARM.attributes
                0x00000398       0x3a CMakeFiles/freertos_hello.elf.dir/D_/PROJECT/XpressoSDK/SDK_2_14_0_MIMX9352xxxxK/rtos/freertos/freertos-kernel/timers.c.obj
 .ARM.attributes
                0x000003d2       0x3a CMakeFiles/freertos_hello.elf.dir/D_/PROJECT/XpressoSDK/SDK_2_14_0_MIMX9352xxxxK/rtos/freertos/freertos-kernel/portable/GCC/ARM_CM33_NTZ/non_secure/port.c.obj
 .ARM.attributes
                0x0000040c       0x3a CMakeFiles/freertos_hello.elf.dir/D_/PROJECT/XpressoSDK/SDK_2_14_0_MIMX9352xxxxK/rtos/freertos/freertos-kernel/portable/GCC/ARM_CM33_NTZ/non_secure/portasm.c.obj
 .ARM.attributes
                0x00000446       0x3a CMakeFiles/freertos_hello.elf.dir/D_/PROJECT/XpressoSDK/SDK_2_14_0_MIMX9352xxxxK/rtos/freertos/freertos-kernel/portable/MemMang/heap_4.c.obj
 .ARM.attributes
                0x00000480       0x26 CMakeFiles/freertos_hello.elf.dir/D_/PROJECT/XpressoSDK/SDK_2_14_0_MIMX9352xxxxK/devices/MIMX9352/utilities/fsl_memcpy.S.obj
 .ARM.attributes
                0x000004a6       0x3a CMakeFiles/freertos_hello.elf.dir/D_/PROJECT/XpressoSDK/SDK_2_14_0_MIMX9352xxxxK/devices/MIMX9352/utilities/fsl_assert.c.obj
 .ARM.attributes
                0x000004e0       0x3a CMakeFiles/freertos_hello.elf.dir/D_/PROJECT/XpressoSDK/SDK_2_14_0_MIMX9352xxxxK/devices/MIMX9352/utilities/str/fsl_str.c.obj
 .ARM.attributes
                0x0000051a       0x3a CMakeFiles/freertos_hello.elf.dir/D_/PROJECT/XpressoSDK/SDK_2_14_0_MIMX9352xxxxK/devices/MIMX9352/utilities/debug_console/fsl_debug_console.c.obj
 .ARM.attributes
                0x00000554       0x38 C:/Users/Admin/.mcuxpressotools/arm-gnu-toolchain-14.2.rel1-mingw-w64-x86_64-arm-none-eabi/bin/../lib/gcc/arm-none-eabi/14.2.1/thumb/v8-m.main+fp/hard\libc_nano.a(libc_a-exit.o)
 .ARM.attributes
                0x0000058c       0x38 C:/Users/Admin/.mcuxpressotools/arm-gnu-toolchain-14.2.rel1-mingw-w64-x86_64-arm-none-eabi/bin/../lib/gcc/arm-none-eabi/14.2.1/thumb/v8-m.main+fp/hard\libc_nano.a(libc_a-findfp.o)
 .ARM.attributes
                0x000005c4       0x38 C:/Users/Admin/.mcuxpressotools/arm-gnu-toolchain-14.2.rel1-mingw-w64-x86_64-arm-none-eabi/bin/../lib/gcc/arm-none-eabi/14.2.1/thumb/v8-m.main+fp/hard\libc_nano.a(libc_a-memset.o)
 .ARM.attributes
                0x000005fc       0x38 C:/Users/Admin/.mcuxpressotools/arm-gnu-toolchain-14.2.rel1-mingw-w64-x86_64-arm-none-eabi/bin/../lib/gcc/arm-none-eabi/14.2.1/thumb/v8-m.main+fp/hard\libc_nano.a(libc_a-init.o)
 .ARM.attributes
                0x00000634       0x24 C:/Users/Admin/.mcuxpressotools/arm-gnu-toolchain-14.2.rel1-mingw-w64-x86_64-arm-none-eabi/bin/../lib/gcc/arm-none-eabi/14.2.1/thumb/v8-m.main+fp/hard\libc_nano.a(libc_a-strlen.o)
 .ARM.attributes
                0x00000658       0x38 C:/Users/Admin/.mcuxpressotools/arm-gnu-toolchain-14.2.rel1-mingw-w64-x86_64-arm-none-eabi/bin/../lib/gcc/arm-none-eabi/14.2.1/../../../../arm-none-eabi/lib/thumb/v8-m.main+fp/hard\libcr_newlib_nohost.a(_exit.o)
 .ARM.attributes
                0x00000690       0x38 C:/Users/Admin/.mcuxpressotools/arm-gnu-toolchain-14.2.rel1-mingw-w64-x86_64-arm-none-eabi/bin/../lib/gcc/arm-none-eabi/14.2.1/thumb/v8-m.main+fp/hard/crtend.o
 .ARM.attributes
                0x000006c8       0x26 C:/Users/Admin/.mcuxpressotools/arm-gnu-toolchain-14.2.rel1-mingw-w64-x86_64-arm-none-eabi/bin/../lib/gcc/arm-none-eabi/14.2.1/thumb/v8-m.main+fp/hard/crtn.o
                0x00000001                        ASSERT ((__StackLimit >= __HeapLimit), region m_data overflowed with stack and heap)
OUTPUT(freertos_hello.elf elf32-littlearm)
LOAD linker stubs

.debug_line_str
                0x00000000      0x2bc
 .debug_line_str
                0x00000000      0x2bc C:/Users/Admin/.mcuxpressotools/arm-gnu-toolchain-14.2.rel1-mingw-w64-x86_64-arm-none-eabi/bin/../lib/gcc/arm-none-eabi/14.2.1/thumb/v8-m.main+fp/hard/crt0.o
                                 0xde (size before relaxing)
 .debug_line_str
                0x000002bc       0x94 CMakeFiles/freertos_hello.elf.dir/D_/PROJECT/XpressoSDK/SDK_2_14_0_MIMX9352xxxxK/devices/MIMX9352/gcc/startup_MIMX9352_cm33.S.obj
 .debug_line_str
                0x000002bc       0x8f CMakeFiles/freertos_hello.elf.dir/D_/PROJECT/XpressoSDK/SDK_2_14_0_MIMX9352xxxxK/devices/MIMX9352/utilities/fsl_memcpy.S.obj
 .debug_line_str
                0x000002bc       0xf3 C:/Users/Admin/.mcuxpressotools/arm-gnu-toolchain-14.2.rel1-mingw-w64-x86_64-arm-none-eabi/bin/../lib/gcc/arm-none-eabi/14.2.1/thumb/v8-m.main+fp/hard\libc_nano.a(libc_a-strlen.o)

.debug_info     0x00000000    0x11e59
 .debug_info    0x00000000      0x51d CMakeFiles/freertos_hello.elf.dir/D_/IMX93/PROJECT/mcimx93evk_freertos_hello/pin_mux.c.obj
 .debug_info    0x0000051d      0x540 CMakeFiles/freertos_hello.elf.dir/D_/IMX93/PROJECT/mcimx93evk_freertos_hello/freertos_hello.c.obj
 .debug_info    0x00000a5d     0x20d8 CMakeFiles/freertos_hello.elf.dir/D_/IMX93/PROJECT/mcimx93evk_freertos_hello/board.c.obj
 .debug_info    0x00002b35      0x955 CMakeFiles/freertos_hello.elf.dir/D_/IMX93/PROJECT/mcimx93evk_freertos_hello/clock_config.c.obj
 .debug_info    0x0000348a      0xe3d CMakeFiles/freertos_hello.elf.dir/D_/PROJECT/XpressoSDK/SDK_2_14_0_MIMX9352xxxxK/components/uart/fsl_adapter_lpuart.c.obj
 .debug_info    0x000042c7      0xdff CMakeFiles/freertos_hello.elf.dir/D_/PROJECT/XpressoSDK/SDK_2_14_0_MIMX9352xxxxK/components/serial_manager/fsl_component_serial_manager.c.obj
 .debug_info    0x000050c6      0x8bc CMakeFiles/freertos_hello.elf.dir/D_/PROJECT/XpressoSDK/SDK_2_14_0_MIMX9352xxxxK/components/serial_manager/fsl_component_serial_port_uart.c.obj
 .debug_info    0x00005982      0x3a1 CMakeFiles/freertos_hello.elf.dir/D_/PROJECT/XpressoSDK/SDK_2_14_0_MIMX9352xxxxK/devices/MIMX9352/system_MIMX9352_cm33.c.obj
 .debug_info    0x00005d23     0x112b CMakeFiles/freertos_hello.elf.dir/D_/PROJECT/XpressoSDK/SDK_2_14_0_MIMX9352xxxxK/devices/MIMX9352/gcc/startup_MIMX9352_cm33.S.obj
 .debug_info    0x00006e4e     0x105b CMakeFiles/freertos_hello.elf.dir/D_/PROJECT/XpressoSDK/SDK_2_14_0_MIMX9352xxxxK/devices/MIMX9352/drivers/fsl_clock.c.obj
 .debug_info    0x00007ea9     0x33b2 CMakeFiles/freertos_hello.elf.dir/D_/PROJECT/XpressoSDK/SDK_2_14_0_MIMX9352xxxxK/devices/MIMX9352/drivers/fsl_lpuart.c.obj
 .debug_info    0x0000b25b      0x298 CMakeFiles/freertos_hello.elf.dir/D_/PROJECT/XpressoSDK/SDK_2_14_0_MIMX9352xxxxK/rtos/freertos/freertos-kernel/list.c.obj
 .debug_info    0x0000b4f3     0x1279 CMakeFiles/freertos_hello.elf.dir/D_/PROJECT/XpressoSDK/SDK_2_14_0_MIMX9352xxxxK/rtos/freertos/freertos-kernel/queue.c.obj
 .debug_info    0x0000c76c     0x1e0f CMakeFiles/freertos_hello.elf.dir/D_/PROJECT/XpressoSDK/SDK_2_14_0_MIMX9352xxxxK/rtos/freertos/freertos-kernel/tasks.c.obj
 .debug_info    0x0000e57b      0xe13 CMakeFiles/freertos_hello.elf.dir/D_/PROJECT/XpressoSDK/SDK_2_14_0_MIMX9352xxxxK/rtos/freertos/freertos-kernel/timers.c.obj
 .debug_info    0x0000f38e      0x2db CMakeFiles/freertos_hello.elf.dir/D_/PROJECT/XpressoSDK/SDK_2_14_0_MIMX9352xxxxK/rtos/freertos/freertos-kernel/portable/GCC/ARM_CM33_NTZ/non_secure/port.c.obj
 .debug_info    0x0000f669      0x137 CMakeFiles/freertos_hello.elf.dir/D_/PROJECT/XpressoSDK/SDK_2_14_0_MIMX9352xxxxK/rtos/freertos/freertos-kernel/portable/GCC/ARM_CM33_NTZ/non_secure/portasm.c.obj
 .debug_info    0x0000f7a0      0x483 CMakeFiles/freertos_hello.elf.dir/D_/PROJECT/XpressoSDK/SDK_2_14_0_MIMX9352xxxxK/rtos/freertos/freertos-kernel/portable/MemMang/heap_4.c.obj
 .debug_info    0x0000fc23       0x25 CMakeFiles/freertos_hello.elf.dir/D_/PROJECT/XpressoSDK/SDK_2_14_0_MIMX9352xxxxK/devices/MIMX9352/utilities/fsl_memcpy.S.obj
 .debug_info    0x0000fc48      0x47a CMakeFiles/freertos_hello.elf.dir/D_/PROJECT/XpressoSDK/SDK_2_14_0_MIMX9352xxxxK/devices/MIMX9352/utilities/fsl_assert.c.obj
 .debug_info    0x000100c2      0xe90 CMakeFiles/freertos_hello.elf.dir/D_/PROJECT/XpressoSDK/SDK_2_14_0_MIMX9352xxxxK/devices/MIMX9352/utilities/str/fsl_str.c.obj
 .debug_info    0x00010f52      0xe64 CMakeFiles/freertos_hello.elf.dir/D_/PROJECT/XpressoSDK/SDK_2_14_0_MIMX9352xxxxK/devices/MIMX9352/utilities/debug_console/fsl_debug_console.c.obj
 .debug_info    0x00011db6       0xa3 C:/Users/Admin/.mcuxpressotools/arm-gnu-toolchain-14.2.rel1-mingw-w64-x86_64-arm-none-eabi/bin/../lib/gcc/arm-none-eabi/14.2.1/../../../../arm-none-eabi/lib/thumb/v8-m.main+fp/hard\libcr_newlib_nohost.a(_exit.o)

.debug_abbrev   0x00000000     0x2a1a
 .debug_abbrev  0x00000000       0xe0 CMakeFiles/freertos_hello.elf.dir/D_/IMX93/PROJECT/mcimx93evk_freertos_hello/pin_mux.c.obj
 .debug_abbrev  0x000000e0      0x161 CMakeFiles/freertos_hello.elf.dir/D_/IMX93/PROJECT/mcimx93evk_freertos_hello/freertos_hello.c.obj
 .debug_abbrev  0x00000241      0x355 CMakeFiles/freertos_hello.elf.dir/D_/IMX93/PROJECT/mcimx93evk_freertos_hello/board.c.obj
 .debug_abbrev  0x00000596      0x1c8 CMakeFiles/freertos_hello.elf.dir/D_/IMX93/PROJECT/mcimx93evk_freertos_hello/clock_config.c.obj
 .debug_abbrev  0x0000075e      0x229 CMakeFiles/freertos_hello.elf.dir/D_/PROJECT/XpressoSDK/SDK_2_14_0_MIMX9352xxxxK/components/uart/fsl_adapter_lpuart.c.obj
 .debug_abbrev  0x00000987      0x2c8 CMakeFiles/freertos_hello.elf.dir/D_/PROJECT/XpressoSDK/SDK_2_14_0_MIMX9352xxxxK/components/serial_manager/fsl_component_serial_manager.c.obj
 .debug_abbrev  0x00000c4f      0x191 CMakeFiles/freertos_hello.elf.dir/D_/PROJECT/XpressoSDK/SDK_2_14_0_MIMX9352xxxxK/components/serial_manager/fsl_component_serial_port_uart.c.obj
 .debug_abbrev  0x00000de0      0x106 CMakeFiles/freertos_hello.elf.dir/D_/PROJECT/XpressoSDK/SDK_2_14_0_MIMX9352xxxxK/devices/MIMX9352/system_MIMX9352_cm33.c.obj
 .debug_abbrev  0x00000ee6       0x26 CMakeFiles/freertos_hello.elf.dir/D_/PROJECT/XpressoSDK/SDK_2_14_0_MIMX9352xxxxK/devices/MIMX9352/gcc/startup_MIMX9352_cm33.S.obj
 .debug_abbrev  0x00000f0c      0x1fd CMakeFiles/freertos_hello.elf.dir/D_/PROJECT/XpressoSDK/SDK_2_14_0_MIMX9352xxxxK/devices/MIMX9352/drivers/fsl_clock.c.obj
 .debug_abbrev  0x00001109      0x489 CMakeFiles/freertos_hello.elf.dir/D_/PROJECT/XpressoSDK/SDK_2_14_0_MIMX9352xxxxK/devices/MIMX9352/drivers/fsl_lpuart.c.obj
 .debug_abbrev  0x00001592       0xf3 CMakeFiles/freertos_hello.elf.dir/D_/PROJECT/XpressoSDK/SDK_2_14_0_MIMX9352xxxxK/rtos/freertos/freertos-kernel/list.c.obj
 .debug_abbrev  0x00001685      0x2c7 CMakeFiles/freertos_hello.elf.dir/D_/PROJECT/XpressoSDK/SDK_2_14_0_MIMX9352xxxxK/rtos/freertos/freertos-kernel/queue.c.obj
 .debug_abbrev  0x0000194c      0x354 CMakeFiles/freertos_hello.elf.dir/D_/PROJECT/XpressoSDK/SDK_2_14_0_MIMX9352xxxxK/rtos/freertos/freertos-kernel/tasks.c.obj
 .debug_abbrev  0x00001ca0      0x2c5 CMakeFiles/freertos_hello.elf.dir/D_/PROJECT/XpressoSDK/SDK_2_14_0_MIMX9352xxxxK/rtos/freertos/freertos-kernel/timers.c.obj
 .debug_abbrev  0x00001f65      0x1ba CMakeFiles/freertos_hello.elf.dir/D_/PROJECT/XpressoSDK/SDK_2_14_0_MIMX9352xxxxK/rtos/freertos/freertos-kernel/portable/GCC/ARM_CM33_NTZ/non_secure/port.c.obj
 .debug_abbrev  0x0000211f       0xb5 CMakeFiles/freertos_hello.elf.dir/D_/PROJECT/XpressoSDK/SDK_2_14_0_MIMX9352xxxxK/rtos/freertos/freertos-kernel/portable/GCC/ARM_CM33_NTZ/non_secure/portasm.c.obj
 .debug_abbrev  0x000021d4      0x206 CMakeFiles/freertos_hello.elf.dir/D_/PROJECT/XpressoSDK/SDK_2_14_0_MIMX9352xxxxK/rtos/freertos/freertos-kernel/portable/MemMang/heap_4.c.obj
 .debug_abbrev  0x000023da       0x14 CMakeFiles/freertos_hello.elf.dir/D_/PROJECT/XpressoSDK/SDK_2_14_0_MIMX9352xxxxK/devices/MIMX9352/utilities/fsl_memcpy.S.obj
 .debug_abbrev  0x000023ee       0xde CMakeFiles/freertos_hello.elf.dir/D_/PROJECT/XpressoSDK/SDK_2_14_0_MIMX9352xxxxK/devices/MIMX9352/utilities/fsl_assert.c.obj
 .debug_abbrev  0x000024cc      0x26f CMakeFiles/freertos_hello.elf.dir/D_/PROJECT/XpressoSDK/SDK_2_14_0_MIMX9352xxxxK/devices/MIMX9352/utilities/str/fsl_str.c.obj
 .debug_abbrev  0x0000273b      0x278 CMakeFiles/freertos_hello.elf.dir/D_/PROJECT/XpressoSDK/SDK_2_14_0_MIMX9352xxxxK/devices/MIMX9352/utilities/debug_console/fsl_debug_console.c.obj
 .debug_abbrev  0x000029b3       0x67 C:/Users/Admin/.mcuxpressotools/arm-gnu-toolchain-14.2.rel1-mingw-w64-x86_64-arm-none-eabi/bin/../lib/gcc/arm-none-eabi/14.2.1/../../../../arm-none-eabi/lib/thumb/v8-m.main+fp/hard\libcr_newlib_nohost.a(_exit.o)

.debug_aranges  0x00000000      0xbd8
 .debug_aranges
                0x00000000       0x38 CMakeFiles/freertos_hello.elf.dir/D_/IMX93/PROJECT/mcimx93evk_freertos_hello/pin_mux.c.obj
 .debug_aranges
                0x00000038       0x28 CMakeFiles/freertos_hello.elf.dir/D_/IMX93/PROJECT/mcimx93evk_freertos_hello/freertos_hello.c.obj
 .debug_aranges
                0x00000060       0x78 CMakeFiles/freertos_hello.elf.dir/D_/IMX93/PROJECT/mcimx93evk_freertos_hello/board.c.obj
 .debug_aranges
                0x000000d8       0x30 CMakeFiles/freertos_hello.elf.dir/D_/IMX93/PROJECT/mcimx93evk_freertos_hello/clock_config.c.obj
 .debug_aranges
                0x00000108       0x58 CMakeFiles/freertos_hello.elf.dir/D_/PROJECT/XpressoSDK/SDK_2_14_0_MIMX9352xxxxK/components/uart/fsl_adapter_lpuart.c.obj
 .debug_aranges
                0x00000160       0xa0 CMakeFiles/freertos_hello.elf.dir/D_/PROJECT/XpressoSDK/SDK_2_14_0_MIMX9352xxxxK/components/serial_manager/fsl_component_serial_manager.c.obj
 .debug_aranges
                0x00000200       0x48 CMakeFiles/freertos_hello.elf.dir/D_/PROJECT/XpressoSDK/SDK_2_14_0_MIMX9352xxxxK/components/serial_manager/fsl_component_serial_port_uart.c.obj
 .debug_aranges
                0x00000248       0x30 CMakeFiles/freertos_hello.elf.dir/D_/PROJECT/XpressoSDK/SDK_2_14_0_MIMX9352xxxxK/devices/MIMX9352/system_MIMX9352_cm33.c.obj
 .debug_aranges
                0x00000278       0x20 CMakeFiles/freertos_hello.elf.dir/D_/PROJECT/XpressoSDK/SDK_2_14_0_MIMX9352xxxxK/devices/MIMX9352/gcc/startup_MIMX9352_cm33.S.obj
 .debug_aranges
                0x00000298       0x38 CMakeFiles/freertos_hello.elf.dir/D_/PROJECT/XpressoSDK/SDK_2_14_0_MIMX9352xxxxK/devices/MIMX9352/drivers/fsl_clock.c.obj
 .debug_aranges
                0x000002d0      0x1a0 CMakeFiles/freertos_hello.elf.dir/D_/PROJECT/XpressoSDK/SDK_2_14_0_MIMX9352xxxxK/devices/MIMX9352/drivers/fsl_lpuart.c.obj
 .debug_aranges
                0x00000470       0x40 CMakeFiles/freertos_hello.elf.dir/D_/PROJECT/XpressoSDK/SDK_2_14_0_MIMX9352xxxxK/rtos/freertos/freertos-kernel/list.c.obj
 .debug_aranges
                0x000004b0      0x130 CMakeFiles/freertos_hello.elf.dir/D_/PROJECT/XpressoSDK/SDK_2_14_0_MIMX9352xxxxK/rtos/freertos/freertos-kernel/queue.c.obj
 .debug_aranges
                0x000005e0      0x208 CMakeFiles/freertos_hello.elf.dir/D_/PROJECT/XpressoSDK/SDK_2_14_0_MIMX9352xxxxK/rtos/freertos/freertos-kernel/tasks.c.obj
 .debug_aranges
                0x000007e8       0xf8 CMakeFiles/freertos_hello.elf.dir/D_/PROJECT/XpressoSDK/SDK_2_14_0_MIMX9352xxxxK/rtos/freertos/freertos-kernel/timers.c.obj
 .debug_aranges
                0x000008e0       0x78 CMakeFiles/freertos_hello.elf.dir/D_/PROJECT/XpressoSDK/SDK_2_14_0_MIMX9352xxxxK/rtos/freertos/freertos-kernel/portable/GCC/ARM_CM33_NTZ/non_secure/port.c.obj
 .debug_aranges
                0x00000958       0x60 CMakeFiles/freertos_hello.elf.dir/D_/PROJECT/XpressoSDK/SDK_2_14_0_MIMX9352xxxxK/rtos/freertos/freertos-kernel/portable/GCC/ARM_CM33_NTZ/non_secure/portasm.c.obj
 .debug_aranges
                0x000009b8       0x60 CMakeFiles/freertos_hello.elf.dir/D_/PROJECT/XpressoSDK/SDK_2_14_0_MIMX9352xxxxK/rtos/freertos/freertos-kernel/portable/MemMang/heap_4.c.obj
 .debug_aranges
                0x00000a18       0x20 CMakeFiles/freertos_hello.elf.dir/D_/PROJECT/XpressoSDK/SDK_2_14_0_MIMX9352xxxxK/devices/MIMX9352/utilities/fsl_memcpy.S.obj
 .debug_aranges
                0x00000a38       0x20 CMakeFiles/freertos_hello.elf.dir/D_/PROJECT/XpressoSDK/SDK_2_14_0_MIMX9352xxxxK/devices/MIMX9352/utilities/fsl_assert.c.obj
 .debug_aranges
                0x00000a58       0xb8 CMakeFiles/freertos_hello.elf.dir/D_/PROJECT/XpressoSDK/SDK_2_14_0_MIMX9352xxxxK/devices/MIMX9352/utilities/str/fsl_str.c.obj
 .debug_aranges
                0x00000b10       0xa8 CMakeFiles/freertos_hello.elf.dir/D_/PROJECT/XpressoSDK/SDK_2_14_0_MIMX9352xxxxK/devices/MIMX9352/utilities/debug_console/fsl_debug_console.c.obj
 .debug_aranges
                0x00000bb8       0x20 C:/Users/Admin/.mcuxpressotools/arm-gnu-toolchain-14.2.rel1-mingw-w64-x86_64-arm-none-eabi/bin/../lib/gcc/arm-none-eabi/14.2.1/../../../../arm-none-eabi/lib/thumb/v8-m.main+fp/hard\libcr_newlib_nohost.a(_exit.o)

.debug_rnglists
                0x00000000      0x8a6
 .debug_rnglists
                0x00000000       0x25 CMakeFiles/freertos_hello.elf.dir/D_/IMX93/PROJECT/mcimx93evk_freertos_hello/pin_mux.c.obj
 .debug_rnglists
                0x00000025       0x19 CMakeFiles/freertos_hello.elf.dir/D_/IMX93/PROJECT/mcimx93evk_freertos_hello/freertos_hello.c.obj
 .debug_rnglists
                0x0000003e       0x56 CMakeFiles/freertos_hello.elf.dir/D_/IMX93/PROJECT/mcimx93evk_freertos_hello/board.c.obj
 .debug_rnglists
                0x00000094       0x20 CMakeFiles/freertos_hello.elf.dir/D_/IMX93/PROJECT/mcimx93evk_freertos_hello/clock_config.c.obj
 .debug_rnglists
                0x000000b4       0x41 CMakeFiles/freertos_hello.elf.dir/D_/PROJECT/XpressoSDK/SDK_2_14_0_MIMX9352xxxxK/components/uart/fsl_adapter_lpuart.c.obj
 .debug_rnglists
                0x000000f5       0x73 CMakeFiles/freertos_hello.elf.dir/D_/PROJECT/XpressoSDK/SDK_2_14_0_MIMX9352xxxxK/components/serial_manager/fsl_component_serial_manager.c.obj
 .debug_rnglists
                0x00000168       0x31 CMakeFiles/freertos_hello.elf.dir/D_/PROJECT/XpressoSDK/SDK_2_14_0_MIMX9352xxxxK/components/serial_manager/fsl_component_serial_port_uart.c.obj
 .debug_rnglists
                0x00000199       0x1f CMakeFiles/freertos_hello.elf.dir/D_/PROJECT/XpressoSDK/SDK_2_14_0_MIMX9352xxxxK/devices/MIMX9352/system_MIMX9352_cm33.c.obj
 .debug_rnglists
                0x000001b8       0x25 CMakeFiles/freertos_hello.elf.dir/D_/PROJECT/XpressoSDK/SDK_2_14_0_MIMX9352xxxxK/devices/MIMX9352/drivers/fsl_clock.c.obj
 .debug_rnglists
                0x000001dd      0x143 CMakeFiles/freertos_hello.elf.dir/D_/PROJECT/XpressoSDK/SDK_2_14_0_MIMX9352xxxxK/devices/MIMX9352/drivers/fsl_lpuart.c.obj
 .debug_rnglists
                0x00000320       0x2b CMakeFiles/freertos_hello.elf.dir/D_/PROJECT/XpressoSDK/SDK_2_14_0_MIMX9352xxxxK/rtos/freertos/freertos-kernel/list.c.obj
 .debug_rnglists
                0x0000034b       0xec CMakeFiles/freertos_hello.elf.dir/D_/PROJECT/XpressoSDK/SDK_2_14_0_MIMX9352xxxxK/rtos/freertos/freertos-kernel/queue.c.obj
 .debug_rnglists
                0x00000437      0x1a0 CMakeFiles/freertos_hello.elf.dir/D_/PROJECT/XpressoSDK/SDK_2_14_0_MIMX9352xxxxK/rtos/freertos/freertos-kernel/tasks.c.obj
 .debug_rnglists
                0x000005d7       0xb9 CMakeFiles/freertos_hello.elf.dir/D_/PROJECT/XpressoSDK/SDK_2_14_0_MIMX9352xxxxK/rtos/freertos/freertos-kernel/timers.c.obj
 .debug_rnglists
                0x00000690       0x56 CMakeFiles/freertos_hello.elf.dir/D_/PROJECT/XpressoSDK/SDK_2_14_0_MIMX9352xxxxK/rtos/freertos/freertos-kernel/portable/GCC/ARM_CM33_NTZ/non_secure/port.c.obj
 .debug_rnglists
                0x000006e6       0x43 CMakeFiles/freertos_hello.elf.dir/D_/PROJECT/XpressoSDK/SDK_2_14_0_MIMX9352xxxxK/rtos/freertos/freertos-kernel/portable/GCC/ARM_CM33_NTZ/non_secure/portasm.c.obj
 .debug_rnglists
                0x00000729       0x48 CMakeFiles/freertos_hello.elf.dir/D_/PROJECT/XpressoSDK/SDK_2_14_0_MIMX9352xxxxK/rtos/freertos/freertos-kernel/portable/MemMang/heap_4.c.obj
 .debug_rnglists
                0x00000771       0x13 CMakeFiles/freertos_hello.elf.dir/D_/PROJECT/XpressoSDK/SDK_2_14_0_MIMX9352xxxxK/devices/MIMX9352/utilities/fsl_assert.c.obj
 .debug_rnglists
                0x00000784       0xa6 CMakeFiles/freertos_hello.elf.dir/D_/PROJECT/XpressoSDK/SDK_2_14_0_MIMX9352xxxxK/devices/MIMX9352/utilities/str/fsl_str.c.obj
 .debug_rnglists
                0x0000082a       0x7c CMakeFiles/freertos_hello.elf.dir/D_/PROJECT/XpressoSDK/SDK_2_14_0_MIMX9352xxxxK/devices/MIMX9352/utilities/debug_console/fsl_debug_console.c.obj

.debug_line     0x00000000     0x8842
 .debug_line    0x00000000      0x1df CMakeFiles/freertos_hello.elf.dir/D_/IMX93/PROJECT/mcimx93evk_freertos_hello/pin_mux.c.obj
 .debug_line    0x000001df      0x324 CMakeFiles/freertos_hello.elf.dir/D_/IMX93/PROJECT/mcimx93evk_freertos_hello/freertos_hello.c.obj
 .debug_line    0x00000503      0x65a CMakeFiles/freertos_hello.elf.dir/D_/IMX93/PROJECT/mcimx93evk_freertos_hello/board.c.obj
 .debug_line    0x00000b5d      0x2a2 CMakeFiles/freertos_hello.elf.dir/D_/IMX93/PROJECT/mcimx93evk_freertos_hello/clock_config.c.obj
 .debug_line    0x00000dff      0x447 CMakeFiles/freertos_hello.elf.dir/D_/PROJECT/XpressoSDK/SDK_2_14_0_MIMX9352xxxxK/components/uart/fsl_adapter_lpuart.c.obj
 .debug_line    0x00001246      0x623 CMakeFiles/freertos_hello.elf.dir/D_/PROJECT/XpressoSDK/SDK_2_14_0_MIMX9352xxxxK/components/serial_manager/fsl_component_serial_manager.c.obj
 .debug_line    0x00001869      0x329 CMakeFiles/freertos_hello.elf.dir/D_/PROJECT/XpressoSDK/SDK_2_14_0_MIMX9352xxxxK/components/serial_manager/fsl_component_serial_port_uart.c.obj
 .debug_line    0x00001b92      0x1b4 CMakeFiles/freertos_hello.elf.dir/D_/PROJECT/XpressoSDK/SDK_2_14_0_MIMX9352xxxxK/devices/MIMX9352/system_MIMX9352_cm33.c.obj
 .debug_line    0x00001d46      0x2bd CMakeFiles/freertos_hello.elf.dir/D_/PROJECT/XpressoSDK/SDK_2_14_0_MIMX9352xxxxK/devices/MIMX9352/gcc/startup_MIMX9352_cm33.S.obj
 .debug_line    0x00002003      0x27b CMakeFiles/freertos_hello.elf.dir/D_/PROJECT/XpressoSDK/SDK_2_14_0_MIMX9352xxxxK/devices/MIMX9352/drivers/fsl_clock.c.obj
 .debug_line    0x0000227e     0x12d3 CMakeFiles/freertos_hello.elf.dir/D_/PROJECT/XpressoSDK/SDK_2_14_0_MIMX9352xxxxK/devices/MIMX9352/drivers/fsl_lpuart.c.obj
 .debug_line    0x00003551      0x307 CMakeFiles/freertos_hello.elf.dir/D_/PROJECT/XpressoSDK/SDK_2_14_0_MIMX9352xxxxK/rtos/freertos/freertos-kernel/list.c.obj
 .debug_line    0x00003858     0x1013 CMakeFiles/freertos_hello.elf.dir/D_/PROJECT/XpressoSDK/SDK_2_14_0_MIMX9352xxxxK/rtos/freertos/freertos-kernel/queue.c.obj
 .debug_line    0x0000486b     0x16ca CMakeFiles/freertos_hello.elf.dir/D_/PROJECT/XpressoSDK/SDK_2_14_0_MIMX9352xxxxK/rtos/freertos/freertos-kernel/tasks.c.obj
 .debug_line    0x00005f35      0x844 CMakeFiles/freertos_hello.elf.dir/D_/PROJECT/XpressoSDK/SDK_2_14_0_MIMX9352xxxxK/rtos/freertos/freertos-kernel/timers.c.obj
 .debug_line    0x00006779      0x453 CMakeFiles/freertos_hello.elf.dir/D_/PROJECT/XpressoSDK/SDK_2_14_0_MIMX9352xxxxK/rtos/freertos/freertos-kernel/portable/GCC/ARM_CM33_NTZ/non_secure/port.c.obj
 .debug_line    0x00006bcc      0x231 CMakeFiles/freertos_hello.elf.dir/D_/PROJECT/XpressoSDK/SDK_2_14_0_MIMX9352xxxxK/rtos/freertos/freertos-kernel/portable/GCC/ARM_CM33_NTZ/non_secure/portasm.c.obj
 .debug_line    0x00006dfd      0x5ad CMakeFiles/freertos_hello.elf.dir/D_/PROJECT/XpressoSDK/SDK_2_14_0_MIMX9352xxxxK/rtos/freertos/freertos-kernel/portable/MemMang/heap_4.c.obj
 .debug_line    0x000073aa       0x88 CMakeFiles/freertos_hello.elf.dir/D_/PROJECT/XpressoSDK/SDK_2_14_0_MIMX9352xxxxK/devices/MIMX9352/utilities/fsl_memcpy.S.obj
 .debug_line    0x00007432      0x1e5 CMakeFiles/freertos_hello.elf.dir/D_/PROJECT/XpressoSDK/SDK_2_14_0_MIMX9352xxxxK/devices/MIMX9352/utilities/fsl_assert.c.obj
 .debug_line    0x00007617      0xad5 CMakeFiles/freertos_hello.elf.dir/D_/PROJECT/XpressoSDK/SDK_2_14_0_MIMX9352xxxxK/devices/MIMX9352/utilities/str/fsl_str.c.obj
 .debug_line    0x000080ec      0x712 CMakeFiles/freertos_hello.elf.dir/D_/PROJECT/XpressoSDK/SDK_2_14_0_MIMX9352xxxxK/devices/MIMX9352/utilities/debug_console/fsl_debug_console.c.obj
 .debug_line    0x000087fe       0x44 C:/Users/Admin/.mcuxpressotools/arm-gnu-toolchain-14.2.rel1-mingw-w64-x86_64-arm-none-eabi/bin/../lib/gcc/arm-none-eabi/14.2.1/../../../../arm-none-eabi/lib/thumb/v8-m.main+fp/hard\libcr_newlib_nohost.a(_exit.o)

.debug_str      0x00000000     0xa399
 .debug_str     0x00000000     0xa399 CMakeFiles/freertos_hello.elf.dir/D_/IMX93/PROJECT/mcimx93evk_freertos_hello/pin_mux.c.obj
                                0xd8d (size before relaxing)
 .debug_str     0x0000a399      0xdd8 CMakeFiles/freertos_hello.elf.dir/D_/IMX93/PROJECT/mcimx93evk_freertos_hello/freertos_hello.c.obj
 .debug_str     0x0000a399     0x275a CMakeFiles/freertos_hello.elf.dir/D_/IMX93/PROJECT/mcimx93evk_freertos_hello/board.c.obj
 .debug_str     0x0000a399      0xe78 CMakeFiles/freertos_hello.elf.dir/D_/IMX93/PROJECT/mcimx93evk_freertos_hello/clock_config.c.obj
 .debug_str     0x0000a399     0x15f5 CMakeFiles/freertos_hello.elf.dir/D_/PROJECT/XpressoSDK/SDK_2_14_0_MIMX9352xxxxK/components/uart/fsl_adapter_lpuart.c.obj
 .debug_str     0x0000a399     0x15be CMakeFiles/freertos_hello.elf.dir/D_/PROJECT/XpressoSDK/SDK_2_14_0_MIMX9352xxxxK/components/serial_manager/fsl_component_serial_manager.c.obj
 .debug_str     0x0000a399     0x1264 CMakeFiles/freertos_hello.elf.dir/D_/PROJECT/XpressoSDK/SDK_2_14_0_MIMX9352xxxxK/components/serial_manager/fsl_component_serial_port_uart.c.obj
 .debug_str     0x0000a399      0x37a CMakeFiles/freertos_hello.elf.dir/D_/PROJECT/XpressoSDK/SDK_2_14_0_MIMX9352xxxxK/devices/MIMX9352/system_MIMX9352_cm33.c.obj
 .debug_str     0x0000a399     0x1fcf CMakeFiles/freertos_hello.elf.dir/D_/PROJECT/XpressoSDK/SDK_2_14_0_MIMX9352xxxxK/devices/MIMX9352/gcc/startup_MIMX9352_cm33.S.obj
 .debug_str     0x0000a399     0x172a CMakeFiles/freertos_hello.elf.dir/D_/PROJECT/XpressoSDK/SDK_2_14_0_MIMX9352xxxxK/devices/MIMX9352/drivers/fsl_clock.c.obj
 .debug_str     0x0000a399     0x3b5d CMakeFiles/freertos_hello.elf.dir/D_/PROJECT/XpressoSDK/SDK_2_14_0_MIMX9352xxxxK/devices/MIMX9352/drivers/fsl_lpuart.c.obj
 .debug_str     0x0000a399      0x35b CMakeFiles/freertos_hello.elf.dir/D_/PROJECT/XpressoSDK/SDK_2_14_0_MIMX9352xxxxK/rtos/freertos/freertos-kernel/list.c.obj
 .debug_str     0x0000a399      0xba2 CMakeFiles/freertos_hello.elf.dir/D_/PROJECT/XpressoSDK/SDK_2_14_0_MIMX9352xxxxK/rtos/freertos/freertos-kernel/queue.c.obj
 .debug_str     0x0000a399     0x127c CMakeFiles/freertos_hello.elf.dir/D_/PROJECT/XpressoSDK/SDK_2_14_0_MIMX9352xxxxK/rtos/freertos/freertos-kernel/tasks.c.obj
 .debug_str     0x0000a399      0xa40 CMakeFiles/freertos_hello.elf.dir/D_/PROJECT/XpressoSDK/SDK_2_14_0_MIMX9352xxxxK/rtos/freertos/freertos-kernel/timers.c.obj
 .debug_str     0x0000a399      0x476 CMakeFiles/freertos_hello.elf.dir/D_/PROJECT/XpressoSDK/SDK_2_14_0_MIMX9352xxxxK/rtos/freertos/freertos-kernel/portable/GCC/ARM_CM33_NTZ/non_secure/port.c.obj
 .debug_str     0x0000a399      0x2ec CMakeFiles/freertos_hello.elf.dir/D_/PROJECT/XpressoSDK/SDK_2_14_0_MIMX9352xxxxK/rtos/freertos/freertos-kernel/portable/GCC/ARM_CM33_NTZ/non_secure/portasm.c.obj
 .debug_str     0x0000a399      0x582 CMakeFiles/freertos_hello.elf.dir/D_/PROJECT/XpressoSDK/SDK_2_14_0_MIMX9352xxxxK/rtos/freertos/freertos-kernel/portable/MemMang/heap_4.c.obj
 .debug_str     0x0000a399       0x9d CMakeFiles/freertos_hello.elf.dir/D_/PROJECT/XpressoSDK/SDK_2_14_0_MIMX9352xxxxK/devices/MIMX9352/utilities/fsl_memcpy.S.obj
 .debug_str     0x0000a399      0xd44 CMakeFiles/freertos_hello.elf.dir/D_/PROJECT/XpressoSDK/SDK_2_14_0_MIMX9352xxxxK/devices/MIMX9352/utilities/fsl_assert.c.obj
 .debug_str     0x0000a399     0x10b6 CMakeFiles/freertos_hello.elf.dir/D_/PROJECT/XpressoSDK/SDK_2_14_0_MIMX9352xxxxK/devices/MIMX9352/utilities/str/fsl_str.c.obj
 .debug_str     0x0000a399     0x1704 CMakeFiles/freertos_hello.elf.dir/D_/PROJECT/XpressoSDK/SDK_2_14_0_MIMX9352xxxxK/devices/MIMX9352/utilities/debug_console/fsl_debug_console.c.obj
 .debug_str     0x0000a399      0x203 C:/Users/Admin/.mcuxpressotools/arm-gnu-toolchain-14.2.rel1-mingw-w64-x86_64-arm-none-eabi/bin/../lib/gcc/arm-none-eabi/14.2.1/../../../../arm-none-eabi/lib/thumb/v8-m.main+fp/hard\libcr_newlib_nohost.a(_exit.o)

.comment        0x00000000       0x45
 .comment       0x00000000       0x45 CMakeFiles/freertos_hello.elf.dir/D_/IMX93/PROJECT/mcimx93evk_freertos_hello/pin_mux.c.obj
                                 0x46 (size before relaxing)
 .comment       0x00000045       0x46 CMakeFiles/freertos_hello.elf.dir/D_/IMX93/PROJECT/mcimx93evk_freertos_hello/freertos_hello.c.obj
 .comment       0x00000045       0x46 CMakeFiles/freertos_hello.elf.dir/D_/IMX93/PROJECT/mcimx93evk_freertos_hello/board.c.obj
 .comment       0x00000045       0x46 CMakeFiles/freertos_hello.elf.dir/D_/IMX93/PROJECT/mcimx93evk_freertos_hello/clock_config.c.obj
 .comment       0x00000045       0x46 CMakeFiles/freertos_hello.elf.dir/D_/PROJECT/XpressoSDK/SDK_2_14_0_MIMX9352xxxxK/components/uart/fsl_adapter_lpuart.c.obj
 .comment       0x00000045       0x46 CMakeFiles/freertos_hello.elf.dir/D_/PROJECT/XpressoSDK/SDK_2_14_0_MIMX9352xxxxK/components/serial_manager/fsl_component_serial_manager.c.obj
 .comment       0x00000045       0x46 CMakeFiles/freertos_hello.elf.dir/D_/PROJECT/XpressoSDK/SDK_2_14_0_MIMX9352xxxxK/components/serial_manager/fsl_component_serial_port_uart.c.obj
 .comment       0x00000045       0x46 CMakeFiles/freertos_hello.elf.dir/D_/PROJECT/XpressoSDK/SDK_2_14_0_MIMX9352xxxxK/devices/MIMX9352/system_MIMX9352_cm33.c.obj
 .comment       0x00000045       0x46 CMakeFiles/freertos_hello.elf.dir/D_/PROJECT/XpressoSDK/SDK_2_14_0_MIMX9352xxxxK/devices/MIMX9352/drivers/fsl_clock.c.obj
 .comment       0x00000045       0x46 CMakeFiles/freertos_hello.elf.dir/D_/PROJECT/XpressoSDK/SDK_2_14_0_MIMX9352xxxxK/devices/MIMX9352/drivers/fsl_lpuart.c.obj
 .comment       0x00000045       0x46 CMakeFiles/freertos_hello.elf.dir/D_/PROJECT/XpressoSDK/SDK_2_14_0_MIMX9352xxxxK/rtos/freertos/freertos-kernel/list.c.obj
 .comment       0x00000045       0x46 CMakeFiles/freertos_hello.elf.dir/D_/PROJECT/XpressoSDK/SDK_2_14_0_MIMX9352xxxxK/rtos/freertos/freertos-kernel/queue.c.obj
 .comment       0x00000045       0x46 CMakeFiles/freertos_hello.elf.dir/D_/PROJECT/XpressoSDK/SDK_2_14_0_MIMX9352xxxxK/rtos/freertos/freertos-kernel/tasks.c.obj
 .comment       0x00000045       0x46 CMakeFiles/freertos_hello.elf.dir/D_/PROJECT/XpressoSDK/SDK_2_14_0_MIMX9352xxxxK/rtos/freertos/freertos-kernel/timers.c.obj
 .comment       0x00000045       0x46 CMakeFiles/freertos_hello.elf.dir/D_/PROJECT/XpressoSDK/SDK_2_14_0_MIMX9352xxxxK/rtos/freertos/freertos-kernel/portable/GCC/ARM_CM33_NTZ/non_secure/port.c.obj
 .comment       0x00000045       0x46 CMakeFiles/freertos_hello.elf.dir/D_/PROJECT/XpressoSDK/SDK_2_14_0_MIMX9352xxxxK/rtos/freertos/freertos-kernel/portable/GCC/ARM_CM33_NTZ/non_secure/portasm.c.obj
 .comment       0x00000045       0x46 CMakeFiles/freertos_hello.elf.dir/D_/PROJECT/XpressoSDK/SDK_2_14_0_MIMX9352xxxxK/rtos/freertos/freertos-kernel/portable/MemMang/heap_4.c.obj
 .comment       0x00000045       0x46 CMakeFiles/freertos_hello.elf.dir/D_/PROJECT/XpressoSDK/SDK_2_14_0_MIMX9352xxxxK/devices/MIMX9352/utilities/fsl_assert.c.obj
 .comment       0x00000045       0x46 CMakeFiles/freertos_hello.elf.dir/D_/PROJECT/XpressoSDK/SDK_2_14_0_MIMX9352xxxxK/devices/MIMX9352/utilities/str/fsl_str.c.obj
 .comment       0x00000045       0x46 CMakeFiles/freertos_hello.elf.dir/D_/PROJECT/XpressoSDK/SDK_2_14_0_MIMX9352xxxxK/devices/MIMX9352/utilities/debug_console/fsl_debug_console.c.obj
 .comment       0x00000045       0x46 C:/Users/Admin/.mcuxpressotools/arm-gnu-toolchain-14.2.rel1-mingw-w64-x86_64-arm-none-eabi/bin/../lib/gcc/arm-none-eabi/14.2.1/../../../../arm-none-eabi/lib/thumb/v8-m.main+fp/hard\libcr_newlib_nohost.a(_exit.o)

.debug_frame    0x00000000     0x2e54
 .debug_frame   0x00000000       0xa0 CMakeFiles/freertos_hello.elf.dir/D_/IMX93/PROJECT/mcimx93evk_freertos_hello/pin_mux.c.obj
 .debug_frame   0x000000a0       0x50 CMakeFiles/freertos_hello.elf.dir/D_/IMX93/PROJECT/mcimx93evk_freertos_hello/freertos_hello.c.obj
 .debug_frame   0x000000f0      0x1d0 CMakeFiles/freertos_hello.elf.dir/D_/IMX93/PROJECT/mcimx93evk_freertos_hello/board.c.obj
 .debug_frame   0x000002c0       0x74 CMakeFiles/freertos_hello.elf.dir/D_/IMX93/PROJECT/mcimx93evk_freertos_hello/clock_config.c.obj
 .debug_frame   0x00000334      0x138 CMakeFiles/freertos_hello.elf.dir/D_/PROJECT/XpressoSDK/SDK_2_14_0_MIMX9352xxxxK/components/uart/fsl_adapter_lpuart.c.obj
 .debug_frame   0x0000046c      0x280 CMakeFiles/freertos_hello.elf.dir/D_/PROJECT/XpressoSDK/SDK_2_14_0_MIMX9352xxxxK/components/serial_manager/fsl_component_serial_manager.c.obj
 .debug_frame   0x000006ec       0xe8 CMakeFiles/freertos_hello.elf.dir/D_/PROJECT/XpressoSDK/SDK_2_14_0_MIMX9352xxxxK/components/serial_manager/fsl_component_serial_port_uart.c.obj
 .debug_frame   0x000007d4       0x6c CMakeFiles/freertos_hello.elf.dir/D_/PROJECT/XpressoSDK/SDK_2_14_0_MIMX9352xxxxK/devices/MIMX9352/system_MIMX9352_cm33.c.obj
 .debug_frame   0x00000840       0xac CMakeFiles/freertos_hello.elf.dir/D_/PROJECT/XpressoSDK/SDK_2_14_0_MIMX9352xxxxK/devices/MIMX9352/drivers/fsl_clock.c.obj
 .debug_frame   0x000008ec      0x6f4 CMakeFiles/freertos_hello.elf.dir/D_/PROJECT/XpressoSDK/SDK_2_14_0_MIMX9352xxxxK/devices/MIMX9352/drivers/fsl_lpuart.c.obj
 .debug_frame   0x00000fe0       0xd8 CMakeFiles/freertos_hello.elf.dir/D_/PROJECT/XpressoSDK/SDK_2_14_0_MIMX9352xxxxK/rtos/freertos/freertos-kernel/list.c.obj
 .debug_frame   0x000010b8      0x518 CMakeFiles/freertos_hello.elf.dir/D_/PROJECT/XpressoSDK/SDK_2_14_0_MIMX9352xxxxK/rtos/freertos/freertos-kernel/queue.c.obj
 .debug_frame   0x000015d0      0x8d8 CMakeFiles/freertos_hello.elf.dir/D_/PROJECT/XpressoSDK/SDK_2_14_0_MIMX9352xxxxK/rtos/freertos/freertos-kernel/tasks.c.obj
 .debug_frame   0x00001ea8      0x3f8 CMakeFiles/freertos_hello.elf.dir/D_/PROJECT/XpressoSDK/SDK_2_14_0_MIMX9352xxxxK/rtos/freertos/freertos-kernel/timers.c.obj
 .debug_frame   0x000022a0      0x19c CMakeFiles/freertos_hello.elf.dir/D_/PROJECT/XpressoSDK/SDK_2_14_0_MIMX9352xxxxK/rtos/freertos/freertos-kernel/portable/GCC/ARM_CM33_NTZ/non_secure/port.c.obj
 .debug_frame   0x0000243c       0xa0 CMakeFiles/freertos_hello.elf.dir/D_/PROJECT/XpressoSDK/SDK_2_14_0_MIMX9352xxxxK/rtos/freertos/freertos-kernel/portable/GCC/ARM_CM33_NTZ/non_secure/portasm.c.obj
 .debug_frame   0x000024dc      0x150 CMakeFiles/freertos_hello.elf.dir/D_/PROJECT/XpressoSDK/SDK_2_14_0_MIMX9352xxxxK/rtos/freertos/freertos-kernel/portable/MemMang/heap_4.c.obj
 .debug_frame   0x0000262c       0x30 CMakeFiles/freertos_hello.elf.dir/D_/PROJECT/XpressoSDK/SDK_2_14_0_MIMX9352xxxxK/devices/MIMX9352/utilities/fsl_assert.c.obj
 .debug_frame   0x0000265c      0x32c CMakeFiles/freertos_hello.elf.dir/D_/PROJECT/XpressoSDK/SDK_2_14_0_MIMX9352xxxxK/devices/MIMX9352/utilities/str/fsl_str.c.obj
 .debug_frame   0x00002988      0x2d4 CMakeFiles/freertos_hello.elf.dir/D_/PROJECT/XpressoSDK/SDK_2_14_0_MIMX9352xxxxK/devices/MIMX9352/utilities/debug_console/fsl_debug_console.c.obj
 .debug_frame   0x00002c5c       0x28 C:/Users/Admin/.mcuxpressotools/arm-gnu-toolchain-14.2.rel1-mingw-w64-x86_64-arm-none-eabi/bin/../lib/gcc/arm-none-eabi/14.2.1/thumb/v8-m.main+fp/hard\libc_nano.a(libc_a-exit.o)
 .debug_frame   0x00002c84      0x144 C:/Users/Admin/.mcuxpressotools/arm-gnu-toolchain-14.2.rel1-mingw-w64-x86_64-arm-none-eabi/bin/../lib/gcc/arm-none-eabi/14.2.1/thumb/v8-m.main+fp/hard\libc_nano.a(libc_a-findfp.o)
 .debug_frame   0x00002dc8       0x20 C:/Users/Admin/.mcuxpressotools/arm-gnu-toolchain-14.2.rel1-mingw-w64-x86_64-arm-none-eabi/bin/../lib/gcc/arm-none-eabi/14.2.1/thumb/v8-m.main+fp/hard\libc_nano.a(libc_a-memset.o)
 .debug_frame   0x00002de8       0x2c C:/Users/Admin/.mcuxpressotools/arm-gnu-toolchain-14.2.rel1-mingw-w64-x86_64-arm-none-eabi/bin/../lib/gcc/arm-none-eabi/14.2.1/thumb/v8-m.main+fp/hard\libc_nano.a(libc_a-init.o)
 .debug_frame   0x00002e14       0x20 C:/Users/Admin/.mcuxpressotools/arm-gnu-toolchain-14.2.rel1-mingw-w64-x86_64-arm-none-eabi/bin/../lib/gcc/arm-none-eabi/14.2.1/thumb/v8-m.main+fp/hard\libc_nano.a(libc_a-strlen.o)
 .debug_frame   0x00002e34       0x20 C:/Users/Admin/.mcuxpressotools/arm-gnu-toolchain-14.2.rel1-mingw-w64-x86_64-arm-none-eabi/bin/../lib/gcc/arm-none-eabi/14.2.1/../../../../arm-none-eabi/lib/thumb/v8-m.main+fp/hard\libcr_newlib_nohost.a(_exit.o)

.debug_loc      0x00000000       0x15
 .debug_loc     0x00000000       0x15 C:/Users/Admin/.mcuxpressotools/arm-gnu-toolchain-14.2.rel1-mingw-w64-x86_64-arm-none-eabi/bin/../lib/gcc/arm-none-eabi/14.2.1/../../../../arm-none-eabi/lib/thumb/v8-m.main+fp/hard\libcr_newlib_nohost.a(_exit.o)

.debug_ranges   0x00000000       0x10
 .debug_ranges  0x00000000       0x10 C:/Users/Admin/.mcuxpressotools/arm-gnu-toolchain-14.2.rel1-mingw-w64-x86_64-arm-none-eabi/bin/../lib/gcc/arm-none-eabi/14.2.1/../../../../arm-none-eabi/lib/thumb/v8-m.main+fp/hard\libcr_newlib_nohost.a(_exit.o)
